(dp1
S'output'
p2
S"<type 'exceptions.SyntaxError'> Table: missing required field: visibility"
p3
sS'layer'
p4
S'/home/kaique/Projects/WebApps/web2py/applications/makebrand/controllers/client.py'
p5
sS'code'
p6
S"# -*- coding: utf-8 -*-\nfrom applications.makebrand.modules.utils import *\n\n@auth.requires_login()\ndef index():\n\tclients = Table(db, 'client')\n\treturn {'clients': clients}\n\n@auth.requires_login()\ndef new():\n\tform = SQLFORM(db.client, fields=['name', 'description', 'avatar'])\n\t\n\tif form.accepts(request, session):\n\t\tform.vars.visibility = True\n\t\tresponse.flash = T('New client was inserted!')\n\telif form.errors:\n\t\tresponse.flash = T('Please, verify the errors.')\n\telse:\n\t\tresponse.flash = T('Fill, the fields. Avatar is optional!')\n\t\n\treturn {'form': form}\n\n@auth.requires_login()\ndef profile():\n\tpass\n\nresponse._vars=response._caller(new)\n"
p7
sS'snapshot'
p8
(dp9
S'exception'
p10
(dp11
S'__getslice__'
p12
S"<method-wrapper '__getslice__' of exceptions.SyntaxError object>"
p13
sS'text'
p14
S'None'
p15
sS'__str__'
p16
S"<method-wrapper '__str__' of exceptions.SyntaxError object>"
p17
sS'__reduce__'
p18
S'<built-in method __reduce__ of exceptions.SyntaxError object>'
p19
sS'__dict__'
p20
S'{}'
p21
sS'__sizeof__'
p22
S'<built-in method __sizeof__ of exceptions.SyntaxError object>'
p23
sS'__init__'
p24
S"<method-wrapper '__init__' of exceptions.SyntaxError object>"
p25
sS'__setattr__'
p26
S"<method-wrapper '__setattr__' of exceptions.SyntaxError object>"
p27
sS'__reduce_ex__'
p28
S'<built-in method __reduce_ex__ of exceptions.SyntaxError object>'
p29
sS'__new__'
p30
S'<built-in method __new__ of type object>'
p31
sS'__format__'
p32
S'<built-in method __format__ of exceptions.SyntaxError object>'
p33
sS'__class__'
p34
S"<type 'exceptions.SyntaxError'>"
p35
sS'filename'
p36
S'None'
p37
sS'lineno'
p38
S'None'
p39
sS'msg'
p40
S"'Table: missing required field: visibility'"
p41
sS'__doc__'
p42
S"'Invalid syntax.'"
p43
sS'__getitem__'
p44
S"<method-wrapper '__getitem__' of exceptions.SyntaxError object>"
p45
sS'__setstate__'
p46
S'<built-in method __setstate__ of exceptions.SyntaxError object>'
p47
sS'__getattribute__'
p48
S"<method-wrapper '__getattribute__' of exceptions.SyntaxError object>"
p49
sS'print_file_and_line'
p50
S'None'
p51
sS'args'
p52
S"('Table: missing required field: visibility',)"
p53
sS'__subclasshook__'
p54
S'<built-in method __subclasshook__ of type object>'
p55
sS'offset'
p56
S'None'
p57
sS'__unicode__'
p58
S'<built-in method __unicode__ of exceptions.SyntaxError object>'
p59
sS'__delattr__'
p60
S"<method-wrapper '__delattr__' of exceptions.SyntaxError object>"
p61
sS'__repr__'
p62
S"<method-wrapper '__repr__' of exceptions.SyntaxError object>"
p63
sS'__hash__'
p64
S"<method-wrapper '__hash__' of exceptions.SyntaxError object>"
p65
ssS'evalue'
p66
S'Table: missing required field: visibility'
p67
sS'request'
p68
ccopy_reg
_reconstructor
p69
(cgluon.html
BEAUTIFY
p70
c__builtin__
object
p71
NtRp72
(dp73
S'attributes'
p74
(dp75
sS'components'
p76
(lp77
g69
(cgluon.html
TABLE
p78
g71
NtRp79
(dp80
g74
(dp81
S'level'
p82
I5
ssS'parent'
p83
Nsg76
(lp84
g69
(cgluon.html
TR
p85
g71
NtRp86
(dp87
g74
(dp88
sg83
g79
sg76
(lp89
g69
(cgluon.html
TD
p90
g71
NtRp91
(dp92
g74
(dp93
S'_style'
p94
S'font-weight:bold;vertical-align:top'
p95
ssg83
g86
sg76
(lp96
S'ajax'
p97
asbag69
(g90
g71
NtRp98
(dp99
g74
(dp100
S'_valign'
p101
S'top'
p102
ssg83
g86
sg76
(lp103
S':'
asbag69
(g90
g71
NtRp104
(dp105
g74
(dp106
sg83
g86
sg76
(lp107
g69
(g70
g71
NtRp108
(dp109
g74
(dp110
g82
I5
ssg83
g104
sg76
(lp111
S'False'
p112
asbasbasbag69
(g85
g71
NtRp113
(dp114
g74
(dp115
sg83
g79
sg76
(lp116
g69
(g90
g71
NtRp117
(dp118
g74
(dp119
g94
g95
ssg83
g113
sg76
(lp120
S'application'
p121
asbag69
(g90
g71
NtRp122
(dp123
g74
(dp124
g101
g102
ssg83
g113
sg76
(lp125
S':'
asbag69
(g90
g71
NtRp126
(dp127
g74
(dp128
sg83
g113
sg76
(lp129
g69
(g70
g71
NtRp130
(dp131
g74
(dp132
g82
I5
ssg83
g126
sg76
(lp133
S'makebrand'
p134
asbasbasbag69
(g85
g71
NtRp135
(dp136
g74
(dp137
sg83
g79
sg76
(lp138
g69
(g90
g71
NtRp139
(dp140
g74
(dp141
g94
g95
ssg83
g135
sg76
(lp142
g52
asbag69
(g90
g71
NtRp143
(dp144
g74
(dp145
g101
g102
ssg83
g135
sg76
(lp146
S':'
asbag69
(g90
g71
NtRp147
(dp148
g74
(dp149
sg83
g135
sg76
(lp150
g69
(g70
g71
NtRp151
(dp152
g74
(dp153
g82
I5
ssg83
g147
sg76
(lp154
g69
(g78
g71
NtRp155
(dp156
g74
(dp157
g82
I4
ssg83
Nsg76
(lp158
sbasbasbasbag69
(g85
g71
NtRp159
(dp160
g74
(dp161
sg83
g79
sg76
(lp162
g69
(g90
g71
NtRp163
(dp164
g74
(dp165
g94
g95
ssg83
g159
sg76
(lp166
S'body'
p167
asbag69
(g90
g71
NtRp168
(dp169
g74
(dp170
g101
g102
ssg83
g159
sg76
(lp171
S':'
asbag69
(g90
g71
NtRp172
(dp173
g74
(dp174
sg83
g159
sg76
(lp175
g69
(g70
g71
NtRp176
(dp177
g74
(dp178
g82
I5
ssg83
g172
sg76
(lp179
S"<open file '<fdopen>', mode 'w+b' at 0xa7675f8>"
p180
asbasbasbag69
(g85
g71
NtRp181
(dp182
g74
(dp183
sg83
g79
sg76
(lp184
g69
(g90
g71
NtRp185
(dp186
g74
(dp187
g94
g95
ssg83
g181
sg76
(lp188
S'client'
p189
asbag69
(g90
g71
NtRp190
(dp191
g74
(dp192
g101
g102
ssg83
g181
sg76
(lp193
S':'
asbag69
(g90
g71
NtRp194
(dp195
g74
(dp196
sg83
g181
sg76
(lp197
g69
(g70
g71
NtRp198
(dp199
g74
(dp200
g82
I5
ssg83
g194
sg76
(lp201
S'127.0.0.1'
p202
asbasbasbag69
(g85
g71
NtRp203
(dp204
g74
(dp205
sg83
g79
sg76
(lp206
g69
(g90
g71
NtRp207
(dp208
g74
(dp209
g94
g95
ssg83
g203
sg76
(lp210
S'controller'
p211
asbag69
(g90
g71
NtRp212
(dp213
g74
(dp214
g101
g102
ssg83
g203
sg76
(lp215
S':'
asbag69
(g90
g71
NtRp216
(dp217
g74
(dp218
sg83
g203
sg76
(lp219
g69
(g70
g71
NtRp220
(dp221
g74
(dp222
g82
I5
ssg83
g216
sg76
(lp223
S'client'
p224
asbasbasbag69
(g85
g71
NtRp225
(dp226
g74
(dp227
sg83
g79
sg76
(lp228
g69
(g90
g71
NtRp229
(dp230
g74
(dp231
g94
g95
ssg83
g225
sg76
(lp232
S'cookies'
p233
asbag69
(g90
g71
NtRp234
(dp235
g74
(dp236
g101
g102
ssg83
g225
sg76
(lp237
S':'
asbag69
(g90
g71
NtRp238
(dp239
g74
(dp240
sg83
g225
sg76
(lp241
g69
(g70
g71
NtRp242
(dp243
g74
(dp244
g82
I5
ssg83
g238
sg76
(lp245
g69
(g78
g71
NtRp246
(dp247
g74
(dp248
g82
I4
ssg83
Nsg76
(lp249
g69
(g85
g71
NtRp250
(dp251
g74
(dp252
sg83
g246
sg76
(lp253
g69
(g90
g71
NtRp254
(dp255
g74
(dp256
g94
g95
ssg83
g250
sg76
(lp257
S'session_id_admin'
p258
asbag69
(g90
g71
NtRp259
(dp260
g74
(dp261
g101
g102
ssg83
g250
sg76
(lp262
S':'
asbag69
(g90
g71
NtRp263
(dp264
g74
(dp265
sg83
g250
sg76
(lp266
g69
(g70
g71
NtRp267
(dp268
g74
(dp269
g82
I4
ssg83
g263
sg76
(lp270
g69
(g78
g71
NtRp271
(dp272
g74
(dp273
g82
I3
ssg83
Nsg76
(lp274
g69
(g85
g71
NtRp275
(dp276
g74
(dp277
sg83
g271
sg76
(lp278
g69
(g90
g71
NtRp279
(dp280
g74
(dp281
g94
g95
ssg83
g275
sg76
(lp282
S'comment'
p283
asbag69
(g90
g71
NtRp284
(dp285
g74
(dp286
g101
g102
ssg83
g275
sg76
(lp287
S':'
asbag69
(g90
g71
NtRp288
(dp289
g74
(dp290
sg83
g275
sg76
(lp291
g69
(g70
g71
NtRp292
(dp293
g74
(dp294
g82
I3
ssg83
g288
sg76
(lp295
S''
asbasbasbag69
(g85
g71
NtRp296
(dp297
g74
(dp298
sg83
g271
sg76
(lp299
g69
(g90
g71
NtRp300
(dp301
g74
(dp302
g94
g95
ssg83
g296
sg76
(lp303
S'domain'
p304
asbag69
(g90
g71
NtRp305
(dp306
g74
(dp307
g101
g102
ssg83
g296
sg76
(lp308
S':'
asbag69
(g90
g71
NtRp309
(dp310
g74
(dp311
sg83
g296
sg76
(lp312
g69
(g70
g71
NtRp313
(dp314
g74
(dp315
g82
I3
ssg83
g309
sg76
(lp316
S''
asbasbasbag69
(g85
g71
NtRp317
(dp318
g74
(dp319
sg83
g271
sg76
(lp320
g69
(g90
g71
NtRp321
(dp322
g74
(dp323
g94
g95
ssg83
g317
sg76
(lp324
S'expires'
p325
asbag69
(g90
g71
NtRp326
(dp327
g74
(dp328
g101
g102
ssg83
g317
sg76
(lp329
S':'
asbag69
(g90
g71
NtRp330
(dp331
g74
(dp332
sg83
g317
sg76
(lp333
g69
(g70
g71
NtRp334
(dp335
g74
(dp336
g82
I3
ssg83
g330
sg76
(lp337
S''
asbasbasbag69
(g85
g71
NtRp338
(dp339
g74
(dp340
sg83
g271
sg76
(lp341
g69
(g90
g71
NtRp342
(dp343
g74
(dp344
g94
g95
ssg83
g338
sg76
(lp345
S'httponly'
p346
asbag69
(g90
g71
NtRp347
(dp348
g74
(dp349
g101
g102
ssg83
g338
sg76
(lp350
S':'
asbag69
(g90
g71
NtRp351
(dp352
g74
(dp353
sg83
g338
sg76
(lp354
g69
(g70
g71
NtRp355
(dp356
g74
(dp357
g82
I3
ssg83
g351
sg76
(lp358
S''
asbasbasbag69
(g85
g71
NtRp359
(dp360
g74
(dp361
sg83
g271
sg76
(lp362
g69
(g90
g71
NtRp363
(dp364
g74
(dp365
g94
g95
ssg83
g359
sg76
(lp366
S'max-age'
p367
asbag69
(g90
g71
NtRp368
(dp369
g74
(dp370
g101
g102
ssg83
g359
sg76
(lp371
S':'
asbag69
(g90
g71
NtRp372
(dp373
g74
(dp374
sg83
g359
sg76
(lp375
g69
(g70
g71
NtRp376
(dp377
g74
(dp378
g82
I3
ssg83
g372
sg76
(lp379
S''
asbasbasbag69
(g85
g71
NtRp380
(dp381
g74
(dp382
sg83
g271
sg76
(lp383
g69
(g90
g71
NtRp384
(dp385
g74
(dp386
g94
g95
ssg83
g380
sg76
(lp387
S'path'
p388
asbag69
(g90
g71
NtRp389
(dp390
g74
(dp391
g101
g102
ssg83
g380
sg76
(lp392
S':'
asbag69
(g90
g71
NtRp393
(dp394
g74
(dp395
sg83
g380
sg76
(lp396
g69
(g70
g71
NtRp397
(dp398
g74
(dp399
g82
I3
ssg83
g393
sg76
(lp400
S''
asbasbasbag69
(g85
g71
NtRp401
(dp402
g74
(dp403
sg83
g271
sg76
(lp404
g69
(g90
g71
NtRp405
(dp406
g74
(dp407
g94
g95
ssg83
g401
sg76
(lp408
S'secure'
p409
asbag69
(g90
g71
NtRp410
(dp411
g74
(dp412
g101
g102
ssg83
g401
sg76
(lp413
S':'
asbag69
(g90
g71
NtRp414
(dp415
g74
(dp416
sg83
g401
sg76
(lp417
g69
(g70
g71
NtRp418
(dp419
g74
(dp420
g82
I3
ssg83
g414
sg76
(lp421
S''
asbasbasbag69
(g85
g71
NtRp422
(dp423
g74
(dp424
sg83
g271
sg76
(lp425
g69
(g90
g71
NtRp426
(dp427
g74
(dp428
g94
g95
ssg83
g422
sg76
(lp429
S'version'
p430
asbag69
(g90
g71
NtRp431
(dp432
g74
(dp433
g101
g102
ssg83
g422
sg76
(lp434
S':'
asbag69
(g90
g71
NtRp435
(dp436
g74
(dp437
sg83
g422
sg76
(lp438
g69
(g70
g71
NtRp439
(dp440
g74
(dp441
g82
I3
ssg83
g435
sg76
(lp442
S''
asbasbasbasbasbasbasbag69
(g85
g71
NtRp443
(dp444
g74
(dp445
sg83
g246
sg76
(lp446
g69
(g90
g71
NtRp447
(dp448
g74
(dp449
g94
g95
ssg83
g443
sg76
(lp450
S'session_id_makebrand'
p451
asbag69
(g90
g71
NtRp452
(dp453
g74
(dp454
g101
g102
ssg83
g443
sg76
(lp455
S':'
asbag69
(g90
g71
NtRp456
(dp457
g74
(dp458
sg83
g443
sg76
(lp459
g69
(g70
g71
NtRp460
(dp461
g74
(dp462
g82
I4
ssg83
g456
sg76
(lp463
g69
(g78
g71
NtRp464
(dp465
g74
(dp466
g82
I3
ssg83
Nsg76
(lp467
g69
(g85
g71
NtRp468
(dp469
g74
(dp470
sg83
g464
sg76
(lp471
g69
(g90
g71
NtRp472
(dp473
g74
(dp474
g94
g95
ssg83
g468
sg76
(lp475
g283
asbag69
(g90
g71
NtRp476
(dp477
g74
(dp478
g101
g102
ssg83
g468
sg76
(lp479
S':'
asbag69
(g90
g71
NtRp480
(dp481
g74
(dp482
sg83
g468
sg76
(lp483
g69
(g70
g71
NtRp484
(dp485
g74
(dp486
g82
I3
ssg83
g480
sg76
(lp487
S''
asbasbasbag69
(g85
g71
NtRp488
(dp489
g74
(dp490
sg83
g464
sg76
(lp491
g69
(g90
g71
NtRp492
(dp493
g74
(dp494
g94
g95
ssg83
g488
sg76
(lp495
g304
asbag69
(g90
g71
NtRp496
(dp497
g74
(dp498
g101
g102
ssg83
g488
sg76
(lp499
S':'
asbag69
(g90
g71
NtRp500
(dp501
g74
(dp502
sg83
g488
sg76
(lp503
g69
(g70
g71
NtRp504
(dp505
g74
(dp506
g82
I3
ssg83
g500
sg76
(lp507
S''
asbasbasbag69
(g85
g71
NtRp508
(dp509
g74
(dp510
sg83
g464
sg76
(lp511
g69
(g90
g71
NtRp512
(dp513
g74
(dp514
g94
g95
ssg83
g508
sg76
(lp515
g325
asbag69
(g90
g71
NtRp516
(dp517
g74
(dp518
g101
g102
ssg83
g508
sg76
(lp519
S':'
asbag69
(g90
g71
NtRp520
(dp521
g74
(dp522
sg83
g508
sg76
(lp523
g69
(g70
g71
NtRp524
(dp525
g74
(dp526
g82
I3
ssg83
g520
sg76
(lp527
S''
asbasbasbag69
(g85
g71
NtRp528
(dp529
g74
(dp530
sg83
g464
sg76
(lp531
g69
(g90
g71
NtRp532
(dp533
g74
(dp534
g94
g95
ssg83
g528
sg76
(lp535
g346
asbag69
(g90
g71
NtRp536
(dp537
g74
(dp538
g101
g102
ssg83
g528
sg76
(lp539
S':'
asbag69
(g90
g71
NtRp540
(dp541
g74
(dp542
sg83
g528
sg76
(lp543
g69
(g70
g71
NtRp544
(dp545
g74
(dp546
g82
I3
ssg83
g540
sg76
(lp547
S''
asbasbasbag69
(g85
g71
NtRp548
(dp549
g74
(dp550
sg83
g464
sg76
(lp551
g69
(g90
g71
NtRp552
(dp553
g74
(dp554
g94
g95
ssg83
g548
sg76
(lp555
g367
asbag69
(g90
g71
NtRp556
(dp557
g74
(dp558
g101
g102
ssg83
g548
sg76
(lp559
S':'
asbag69
(g90
g71
NtRp560
(dp561
g74
(dp562
sg83
g548
sg76
(lp563
g69
(g70
g71
NtRp564
(dp565
g74
(dp566
g82
I3
ssg83
g560
sg76
(lp567
S''
asbasbasbag69
(g85
g71
NtRp568
(dp569
g74
(dp570
sg83
g464
sg76
(lp571
g69
(g90
g71
NtRp572
(dp573
g74
(dp574
g94
g95
ssg83
g568
sg76
(lp575
g388
asbag69
(g90
g71
NtRp576
(dp577
g74
(dp578
g101
g102
ssg83
g568
sg76
(lp579
S':'
asbag69
(g90
g71
NtRp580
(dp581
g74
(dp582
sg83
g568
sg76
(lp583
g69
(g70
g71
NtRp584
(dp585
g74
(dp586
g82
I3
ssg83
g580
sg76
(lp587
S''
asbasbasbag69
(g85
g71
NtRp588
(dp589
g74
(dp590
sg83
g464
sg76
(lp591
g69
(g90
g71
NtRp592
(dp593
g74
(dp594
g94
g95
ssg83
g588
sg76
(lp595
g409
asbag69
(g90
g71
NtRp596
(dp597
g74
(dp598
g101
g102
ssg83
g588
sg76
(lp599
S':'
asbag69
(g90
g71
NtRp600
(dp601
g74
(dp602
sg83
g588
sg76
(lp603
g69
(g70
g71
NtRp604
(dp605
g74
(dp606
g82
I3
ssg83
g600
sg76
(lp607
S''
asbasbasbag69
(g85
g71
NtRp608
(dp609
g74
(dp610
sg83
g464
sg76
(lp611
g69
(g90
g71
NtRp612
(dp613
g74
(dp614
g94
g95
ssg83
g608
sg76
(lp615
g430
asbag69
(g90
g71
NtRp616
(dp617
g74
(dp618
g101
g102
ssg83
g608
sg76
(lp619
S':'
asbag69
(g90
g71
NtRp620
(dp621
g74
(dp622
sg83
g608
sg76
(lp623
g69
(g70
g71
NtRp624
(dp625
g74
(dp626
g82
I3
ssg83
g620
sg76
(lp627
S''
asbasbasbasbasbasbasbasbasbasbasbag69
(g85
g71
NtRp628
(dp629
g74
(dp630
sg83
g79
sg76
(lp631
g69
(g90
g71
NtRp632
(dp633
g74
(dp634
g94
g95
ssg83
g628
sg76
(lp635
S'env'
p636
asbag69
(g90
g71
NtRp637
(dp638
g74
(dp639
g101
g102
ssg83
g628
sg76
(lp640
S':'
asbag69
(g90
g71
NtRp641
(dp642
g74
(dp643
sg83
g628
sg76
(lp644
g69
(g70
g71
NtRp645
(dp646
g74
(dp647
g82
I5
ssg83
g641
sg76
(lp648
g69
(g78
g71
NtRp649
(dp650
g74
(dp651
g82
I4
ssg83
Nsg76
(lp652
g69
(g85
g71
NtRp653
(dp654
g74
(dp655
sg83
g649
sg76
(lp656
g69
(g90
g71
NtRp657
(dp658
g74
(dp659
g94
g95
ssg83
g653
sg76
(lp660
S'app_folders'
p661
asbag69
(g90
g71
NtRp662
(dp663
g74
(dp664
g101
g102
ssg83
g653
sg76
(lp665
S':'
asbag69
(g90
g71
NtRp666
(dp667
g74
(dp668
sg83
g653
sg76
(lp669
g69
(g70
g71
NtRp670
(dp671
g74
(dp672
g82
I4
ssg83
g666
sg76
(lp673
S"set(['/home/kaique/Projects/WebApps/web2py/applications/makebrand/', '/home/kaique/Projects/WebApps/web2py/applications/admin/'])"
p674
asbasbasbag69
(g85
g71
NtRp675
(dp676
g74
(dp677
sg83
g649
sg76
(lp678
g69
(g90
g71
NtRp679
(dp680
g74
(dp681
g94
g95
ssg83
g675
sg76
(lp682
S'applications_parent'
p683
asbag69
(g90
g71
NtRp684
(dp685
g74
(dp686
g101
g102
ssg83
g675
sg76
(lp687
S':'
asbag69
(g90
g71
NtRp688
(dp689
g74
(dp690
sg83
g675
sg76
(lp691
g69
(g70
g71
NtRp692
(dp693
g74
(dp694
g82
I4
ssg83
g688
sg76
(lp695
S'/home/kaique/Projects/WebApps/web2py'
p696
asbasbasbag69
(g85
g71
NtRp697
(dp698
g74
(dp699
sg83
g649
sg76
(lp700
g69
(g90
g71
NtRp701
(dp702
g74
(dp703
g94
g95
ssg83
g697
sg76
(lp704
S'cmd_args'
p705
asbag69
(g90
g71
NtRp706
(dp707
g74
(dp708
g101
g102
ssg83
g697
sg76
(lp709
S':'
asbag69
(g90
g71
NtRp710
(dp711
g74
(dp712
sg83
g697
sg76
(lp713
g69
(g70
g71
NtRp714
(dp715
g74
(dp716
g82
I4
ssg83
g710
sg76
(lp717
g69
(g78
g71
NtRp718
(dp719
g74
(dp720
g82
I3
ssg83
Nsg76
(lp721
sbasbasbasbag69
(g85
g71
NtRp722
(dp723
g74
(dp724
sg83
g649
sg76
(lp725
g69
(g90
g71
NtRp726
(dp727
g74
(dp728
g94
g95
ssg83
g722
sg76
(lp729
S'cmd_options'
p730
asbag69
(g90
g71
NtRp731
(dp732
g74
(dp733
g101
g102
ssg83
g722
sg76
(lp734
S':'
asbag69
(g90
g71
NtRp735
(dp736
g74
(dp737
sg83
g722
sg76
(lp738
g69
(g70
g71
NtRp739
(dp740
g74
(dp741
g82
I4
ssg83
g735
sg76
(lp742
S"<Values at 0xa1f67ec: {'verbose': False, 'ip': '127.0.0.1', 'shutdown_timeout': 5, 'taskbar': False, 'nocron': False, 'pid_filename': 'httpserver.pid', 'maxthreads': None, 'softcron': False, 'server_name': 'ubuntu', 'bpython': False, 'nogui': False, 'port': 8000, 'extcron': False, 'debuglevel': 30, 'test': None, 'folder': '/home/kaique/Projects/WebApps/web2py', 'config': '', 'import_models': False, 'winservice': '', 'shell': None, 'run': '', 'log_filename': 'httpserver.log', 'args': [''], 'socket_timeout': 1, 'ssl_ca_certificate': None, 'scheduler': None, 'profiler_filename': None, 'ssl_private_key': '', 'password': 'dev', 'request_queue_size': 5, 'ssl_certificate': '', 'cronjob': False, 'numthreads': None, 'quiet': False, 'interfaces': None, 'minthreads': None, 'timeout': 10, 'plain': False, 'nobanner': False}>"
p743
asbasbasbag69
(g85
g71
NtRp744
(dp745
g74
(dp746
sg83
g649
sg76
(lp747
g69
(g90
g71
NtRp748
(dp749
g74
(dp750
g94
g95
ssg83
g744
sg76
(lp751
S'content_length'
p752
asbag69
(g90
g71
NtRp753
(dp754
g74
(dp755
g101
g102
ssg83
g744
sg76
(lp756
S':'
asbag69
(g90
g71
NtRp757
(dp758
g74
(dp759
sg83
g744
sg76
(lp760
g69
(g70
g71
NtRp761
(dp762
g74
(dp763
g82
I4
ssg83
g757
sg76
(lp764
S'636'
p765
asbasbasbag69
(g85
g71
NtRp766
(dp767
g74
(dp768
sg83
g649
sg76
(lp769
g69
(g90
g71
NtRp770
(dp771
g74
(dp772
g94
g95
ssg83
g766
sg76
(lp773
S'content_type'
p774
asbag69
(g90
g71
NtRp775
(dp776
g74
(dp777
g101
g102
ssg83
g766
sg76
(lp778
S':'
asbag69
(g90
g71
NtRp779
(dp780
g74
(dp781
sg83
g766
sg76
(lp782
g69
(g70
g71
NtRp783
(dp784
g74
(dp785
g82
I4
ssg83
g779
sg76
(lp786
S'multipart/form-data; boundary=----WebKitFormBoundaryOOsjy2KyOfMlSIno'
p787
asbasbasbag69
(g85
g71
NtRp788
(dp789
g74
(dp790
sg83
g649
sg76
(lp791
g69
(g90
g71
NtRp792
(dp793
g74
(dp794
g94
g95
ssg83
g788
sg76
(lp795
S'db_sessions'
p796
asbag69
(g90
g71
NtRp797
(dp798
g74
(dp799
g101
g102
ssg83
g788
sg76
(lp800
S':'
asbag69
(g90
g71
NtRp801
(dp802
g74
(dp803
sg83
g788
sg76
(lp804
g69
(g70
g71
NtRp805
(dp806
g74
(dp807
g82
I4
ssg83
g801
sg76
(lp808
S'set([])'
p809
asbasbasbag69
(g85
g71
NtRp810
(dp811
g74
(dp812
sg83
g649
sg76
(lp813
g69
(g90
g71
NtRp814
(dp815
g74
(dp816
g94
g95
ssg83
g810
sg76
(lp817
S'debugging'
p818
asbag69
(g90
g71
NtRp819
(dp820
g74
(dp821
g101
g102
ssg83
g810
sg76
(lp822
S':'
asbag69
(g90
g71
NtRp823
(dp824
g74
(dp825
sg83
g810
sg76
(lp826
g69
(g70
g71
NtRp827
(dp828
g74
(dp829
g82
I4
ssg83
g823
sg76
(lp830
g112
asbasbasbag69
(g85
g71
NtRp831
(dp832
g74
(dp833
sg83
g649
sg76
(lp834
g69
(g90
g71
NtRp835
(dp836
g74
(dp837
g94
g95
ssg83
g831
sg76
(lp838
S'gluon_parent'
p839
asbag69
(g90
g71
NtRp840
(dp841
g74
(dp842
g101
g102
ssg83
g831
sg76
(lp843
S':'
asbag69
(g90
g71
NtRp844
(dp845
g74
(dp846
sg83
g831
sg76
(lp847
g69
(g70
g71
NtRp848
(dp849
g74
(dp850
g82
I4
ssg83
g844
sg76
(lp851
S'/home/kaique/Projects/WebApps/web2py'
p852
asbasbasbag69
(g85
g71
NtRp853
(dp854
g74
(dp855
sg83
g649
sg76
(lp856
g69
(g90
g71
NtRp857
(dp858
g74
(dp859
g94
g95
ssg83
g853
sg76
(lp860
S'http_accept'
p861
asbag69
(g90
g71
NtRp862
(dp863
g74
(dp864
g101
g102
ssg83
g853
sg76
(lp865
S':'
asbag69
(g90
g71
NtRp866
(dp867
g74
(dp868
sg83
g853
sg76
(lp869
g69
(g70
g71
NtRp870
(dp871
g74
(dp872
g82
I4
ssg83
g866
sg76
(lp873
S'text/html,application/xhtml+xml,application/xml;q=0.9,*/*;q=0.8'
p874
asbasbasbag69
(g85
g71
NtRp875
(dp876
g74
(dp877
sg83
g649
sg76
(lp878
g69
(g90
g71
NtRp879
(dp880
g74
(dp881
g94
g95
ssg83
g875
sg76
(lp882
S'http_accept_charset'
p883
asbag69
(g90
g71
NtRp884
(dp885
g74
(dp886
g101
g102
ssg83
g875
sg76
(lp887
S':'
asbag69
(g90
g71
NtRp888
(dp889
g74
(dp890
sg83
g875
sg76
(lp891
g69
(g70
g71
NtRp892
(dp893
g74
(dp894
g82
I4
ssg83
g888
sg76
(lp895
S'UTF-8,*;q=0.5'
p896
asbasbasbag69
(g85
g71
NtRp897
(dp898
g74
(dp899
sg83
g649
sg76
(lp900
g69
(g90
g71
NtRp901
(dp902
g74
(dp903
g94
g95
ssg83
g897
sg76
(lp904
S'http_accept_encoding'
p905
asbag69
(g90
g71
NtRp906
(dp907
g74
(dp908
g101
g102
ssg83
g897
sg76
(lp909
S':'
asbag69
(g90
g71
NtRp910
(dp911
g74
(dp912
sg83
g897
sg76
(lp913
g69
(g70
g71
NtRp914
(dp915
g74
(dp916
g82
I4
ssg83
g910
sg76
(lp917
S'gzip,deflate,sdch'
p918
asbasbasbag69
(g85
g71
NtRp919
(dp920
g74
(dp921
sg83
g649
sg76
(lp922
g69
(g90
g71
NtRp923
(dp924
g74
(dp925
g94
g95
ssg83
g919
sg76
(lp926
S'http_accept_language'
p927
asbag69
(g90
g71
NtRp928
(dp929
g74
(dp930
g101
g102
ssg83
g919
sg76
(lp931
S':'
asbag69
(g90
g71
NtRp932
(dp933
g74
(dp934
sg83
g919
sg76
(lp935
g69
(g70
g71
NtRp936
(dp937
g74
(dp938
g82
I4
ssg83
g932
sg76
(lp939
S'pt-BR,pt;q=0.8,en-US;q=0.6,en;q=0.4'
p940
asbasbasbag69
(g85
g71
NtRp941
(dp942
g74
(dp943
sg83
g649
sg76
(lp944
g69
(g90
g71
NtRp945
(dp946
g74
(dp947
g94
g95
ssg83
g941
sg76
(lp948
S'http_cache_control'
p949
asbag69
(g90
g71
NtRp950
(dp951
g74
(dp952
g101
g102
ssg83
g941
sg76
(lp953
S':'
asbag69
(g90
g71
NtRp954
(dp955
g74
(dp956
sg83
g941
sg76
(lp957
g69
(g70
g71
NtRp958
(dp959
g74
(dp960
g82
I4
ssg83
g954
sg76
(lp961
S'max-age=0'
p962
asbasbasbag69
(g85
g71
NtRp963
(dp964
g74
(dp965
sg83
g649
sg76
(lp966
g69
(g90
g71
NtRp967
(dp968
g74
(dp969
g94
g95
ssg83
g963
sg76
(lp970
S'http_connection'
p971
asbag69
(g90
g71
NtRp972
(dp973
g74
(dp974
g101
g102
ssg83
g963
sg76
(lp975
S':'
asbag69
(g90
g71
NtRp976
(dp977
g74
(dp978
sg83
g963
sg76
(lp979
g69
(g70
g71
NtRp980
(dp981
g74
(dp982
g82
I4
ssg83
g976
sg76
(lp983
S'keep-alive'
p984
asbasbasbag69
(g85
g71
NtRp985
(dp986
g74
(dp987
sg83
g649
sg76
(lp988
g69
(g90
g71
NtRp989
(dp990
g74
(dp991
g94
g95
ssg83
g985
sg76
(lp992
S'http_content_length'
p993
asbag69
(g90
g71
NtRp994
(dp995
g74
(dp996
g101
g102
ssg83
g985
sg76
(lp997
S':'
asbag69
(g90
g71
NtRp998
(dp999
g74
(dp1000
sg83
g985
sg76
(lp1001
g69
(g70
g71
NtRp1002
(dp1003
g74
(dp1004
g82
I4
ssg83
g998
sg76
(lp1005
g765
asbasbasbag69
(g85
g71
NtRp1006
(dp1007
g74
(dp1008
sg83
g649
sg76
(lp1009
g69
(g90
g71
NtRp1010
(dp1011
g74
(dp1012
g94
g95
ssg83
g1006
sg76
(lp1013
S'http_content_type'
p1014
asbag69
(g90
g71
NtRp1015
(dp1016
g74
(dp1017
g101
g102
ssg83
g1006
sg76
(lp1018
S':'
asbag69
(g90
g71
NtRp1019
(dp1020
g74
(dp1021
sg83
g1006
sg76
(lp1022
g69
(g70
g71
NtRp1023
(dp1024
g74
(dp1025
g82
I4
ssg83
g1019
sg76
(lp1026
g787
asbasbasbag69
(g85
g71
NtRp1027
(dp1028
g74
(dp1029
sg83
g649
sg76
(lp1030
g69
(g90
g71
NtRp1031
(dp1032
g74
(dp1033
g94
g95
ssg83
g1027
sg76
(lp1034
S'http_cookie'
p1035
asbag69
(g90
g71
NtRp1036
(dp1037
g74
(dp1038
g101
g102
ssg83
g1027
sg76
(lp1039
S':'
asbag69
(g90
g71
NtRp1040
(dp1041
g74
(dp1042
sg83
g1027
sg76
(lp1043
g69
(g70
g71
NtRp1044
(dp1045
g74
(dp1046
g82
I4
ssg83
g1040
sg76
(lp1047
S'session_id_makebrand=127.0.0.1-a55916a1-4839-4cd2-96c9-1f7b201ae4ed; session_id_admin=127.0.0.1-9f1bc485-5358-4407-83fc-0c1983af58ca'
p1048
asbasbasbag69
(g85
g71
NtRp1049
(dp1050
g74
(dp1051
sg83
g649
sg76
(lp1052
g69
(g90
g71
NtRp1053
(dp1054
g74
(dp1055
g94
g95
ssg83
g1049
sg76
(lp1056
S'http_host'
p1057
asbag69
(g90
g71
NtRp1058
(dp1059
g74
(dp1060
g101
g102
ssg83
g1049
sg76
(lp1061
S':'
asbag69
(g90
g71
NtRp1062
(dp1063
g74
(dp1064
sg83
g1049
sg76
(lp1065
g69
(g70
g71
NtRp1066
(dp1067
g74
(dp1068
g82
I4
ssg83
g1062
sg76
(lp1069
S'127.0.0.1:8000'
p1070
asbasbasbag69
(g85
g71
NtRp1071
(dp1072
g74
(dp1073
sg83
g649
sg76
(lp1074
g69
(g90
g71
NtRp1075
(dp1076
g74
(dp1077
g94
g95
ssg83
g1071
sg76
(lp1078
S'http_origin'
p1079
asbag69
(g90
g71
NtRp1080
(dp1081
g74
(dp1082
g101
g102
ssg83
g1071
sg76
(lp1083
S':'
asbag69
(g90
g71
NtRp1084
(dp1085
g74
(dp1086
sg83
g1071
sg76
(lp1087
g69
(g70
g71
NtRp1088
(dp1089
g74
(dp1090
g82
I4
ssg83
g1084
sg76
(lp1091
S'http://127.0.0.1:8000'
p1092
asbasbasbag69
(g85
g71
NtRp1093
(dp1094
g74
(dp1095
sg83
g649
sg76
(lp1096
g69
(g90
g71
NtRp1097
(dp1098
g74
(dp1099
g94
g95
ssg83
g1093
sg76
(lp1100
S'http_referer'
p1101
asbag69
(g90
g71
NtRp1102
(dp1103
g74
(dp1104
g101
g102
ssg83
g1093
sg76
(lp1105
S':'
asbag69
(g90
g71
NtRp1106
(dp1107
g74
(dp1108
sg83
g1093
sg76
(lp1109
g69
(g70
g71
NtRp1110
(dp1111
g74
(dp1112
g82
I4
ssg83
g1106
sg76
(lp1113
S'http://127.0.0.1:8000/makebrand/client/new'
p1114
asbasbasbag69
(g85
g71
NtRp1115
(dp1116
g74
(dp1117
sg83
g649
sg76
(lp1118
g69
(g90
g71
NtRp1119
(dp1120
g74
(dp1121
g94
g95
ssg83
g1115
sg76
(lp1122
S'http_user_agent'
p1123
asbag69
(g90
g71
NtRp1124
(dp1125
g74
(dp1126
g101
g102
ssg83
g1115
sg76
(lp1127
S':'
asbag69
(g90
g71
NtRp1128
(dp1129
g74
(dp1130
sg83
g1115
sg76
(lp1131
g69
(g70
g71
NtRp1132
(dp1133
g74
(dp1134
g82
I4
ssg83
g1128
sg76
(lp1135
S'Mozilla/5.0 (X11; Linux i686) AppleWebKit/535.7 (KHTML, like Gecko) Chrome/16.0.912.77 Safari/535.7'
p1136
asbasbasbag69
(g85
g71
NtRp1137
(dp1138
g74
(dp1139
sg83
g649
sg76
(lp1140
g69
(g90
g71
NtRp1141
(dp1142
g74
(dp1143
g94
g95
ssg83
g1137
sg76
(lp1144
S'is_jython'
p1145
asbag69
(g90
g71
NtRp1146
(dp1147
g74
(dp1148
g101
g102
ssg83
g1137
sg76
(lp1149
S':'
asbag69
(g90
g71
NtRp1150
(dp1151
g74
(dp1152
sg83
g1137
sg76
(lp1153
g69
(g70
g71
NtRp1154
(dp1155
g74
(dp1156
g82
I4
ssg83
g1150
sg76
(lp1157
g112
asbasbasbag69
(g85
g71
NtRp1158
(dp1159
g74
(dp1160
sg83
g649
sg76
(lp1161
g69
(g90
g71
NtRp1162
(dp1163
g74
(dp1164
g94
g95
ssg83
g1158
sg76
(lp1165
S'is_pypy'
p1166
asbag69
(g90
g71
NtRp1167
(dp1168
g74
(dp1169
g101
g102
ssg83
g1158
sg76
(lp1170
S':'
asbag69
(g90
g71
NtRp1171
(dp1172
g74
(dp1173
sg83
g1158
sg76
(lp1174
g69
(g70
g71
NtRp1175
(dp1176
g74
(dp1177
g82
I4
ssg83
g1171
sg76
(lp1178
g112
asbasbasbag69
(g85
g71
NtRp1179
(dp1180
g74
(dp1181
sg83
g649
sg76
(lp1182
g69
(g90
g71
NtRp1183
(dp1184
g74
(dp1185
g94
g95
ssg83
g1179
sg76
(lp1186
S'path_info'
p1187
asbag69
(g90
g71
NtRp1188
(dp1189
g74
(dp1190
g101
g102
ssg83
g1179
sg76
(lp1191
S':'
asbag69
(g90
g71
NtRp1192
(dp1193
g74
(dp1194
sg83
g1179
sg76
(lp1195
g69
(g70
g71
NtRp1196
(dp1197
g74
(dp1198
g82
I4
ssg83
g1192
sg76
(lp1199
S'/makebrand/client/new'
p1200
asbasbasbag69
(g85
g71
NtRp1201
(dp1202
g74
(dp1203
sg83
g649
sg76
(lp1204
g69
(g90
g71
NtRp1205
(dp1206
g74
(dp1207
g94
g95
ssg83
g1201
sg76
(lp1208
S'query_string'
p1209
asbag69
(g90
g71
NtRp1210
(dp1211
g74
(dp1212
g101
g102
ssg83
g1201
sg76
(lp1213
S':'
asbag69
(g90
g71
NtRp1214
(dp1215
g74
(dp1216
sg83
g1201
sg76
(lp1217
g69
(g70
g71
NtRp1218
(dp1219
g74
(dp1220
g82
I4
ssg83
g1214
sg76
(lp1221
S''
asbasbasbag69
(g85
g71
NtRp1222
(dp1223
g74
(dp1224
sg83
g649
sg76
(lp1225
g69
(g90
g71
NtRp1226
(dp1227
g74
(dp1228
g94
g95
ssg83
g1222
sg76
(lp1229
S'remote_addr'
p1230
asbag69
(g90
g71
NtRp1231
(dp1232
g74
(dp1233
g101
g102
ssg83
g1222
sg76
(lp1234
S':'
asbag69
(g90
g71
NtRp1235
(dp1236
g74
(dp1237
sg83
g1222
sg76
(lp1238
g69
(g70
g71
NtRp1239
(dp1240
g74
(dp1241
g82
I4
ssg83
g1235
sg76
(lp1242
g202
asbasbasbag69
(g85
g71
NtRp1243
(dp1244
g74
(dp1245
sg83
g649
sg76
(lp1246
g69
(g90
g71
NtRp1247
(dp1248
g74
(dp1249
g94
g95
ssg83
g1243
sg76
(lp1250
S'remote_port'
p1251
asbag69
(g90
g71
NtRp1252
(dp1253
g74
(dp1254
g101
g102
ssg83
g1243
sg76
(lp1255
S':'
asbag69
(g90
g71
NtRp1256
(dp1257
g74
(dp1258
sg83
g1243
sg76
(lp1259
g69
(g70
g71
NtRp1260
(dp1261
g74
(dp1262
g82
I4
ssg83
g1256
sg76
(lp1263
S'56783'
p1264
asbasbasbag69
(g85
g71
NtRp1265
(dp1266
g74
(dp1267
sg83
g649
sg76
(lp1268
g69
(g90
g71
NtRp1269
(dp1270
g74
(dp1271
g94
g95
ssg83
g1265
sg76
(lp1272
S'request_method'
p1273
asbag69
(g90
g71
NtRp1274
(dp1275
g74
(dp1276
g101
g102
ssg83
g1265
sg76
(lp1277
S':'
asbag69
(g90
g71
NtRp1278
(dp1279
g74
(dp1280
sg83
g1265
sg76
(lp1281
g69
(g70
g71
NtRp1282
(dp1283
g74
(dp1284
g82
I4
ssg83
g1278
sg76
(lp1285
S'POST'
p1286
asbasbasbag69
(g85
g71
NtRp1287
(dp1288
g74
(dp1289
sg83
g649
sg76
(lp1290
g69
(g90
g71
NtRp1291
(dp1292
g74
(dp1293
g94
g95
ssg83
g1287
sg76
(lp1294
S'script_name'
p1295
asbag69
(g90
g71
NtRp1296
(dp1297
g74
(dp1298
g101
g102
ssg83
g1287
sg76
(lp1299
S':'
asbag69
(g90
g71
NtRp1300
(dp1301
g74
(dp1302
sg83
g1287
sg76
(lp1303
g69
(g70
g71
NtRp1304
(dp1305
g74
(dp1306
g82
I4
ssg83
g1300
sg76
(lp1307
S''
asbasbasbag69
(g85
g71
NtRp1308
(dp1309
g74
(dp1310
sg83
g649
sg76
(lp1311
g69
(g90
g71
NtRp1312
(dp1313
g74
(dp1314
g94
g95
ssg83
g1308
sg76
(lp1315
S'server_name'
p1316
asbag69
(g90
g71
NtRp1317
(dp1318
g74
(dp1319
g101
g102
ssg83
g1308
sg76
(lp1320
S':'
asbag69
(g90
g71
NtRp1321
(dp1322
g74
(dp1323
sg83
g1308
sg76
(lp1324
g69
(g70
g71
NtRp1325
(dp1326
g74
(dp1327
g82
I4
ssg83
g1321
sg76
(lp1328
S'ubuntu'
p1329
asbasbasbag69
(g85
g71
NtRp1330
(dp1331
g74
(dp1332
sg83
g649
sg76
(lp1333
g69
(g90
g71
NtRp1334
(dp1335
g74
(dp1336
g94
g95
ssg83
g1330
sg76
(lp1337
S'server_port'
p1338
asbag69
(g90
g71
NtRp1339
(dp1340
g74
(dp1341
g101
g102
ssg83
g1330
sg76
(lp1342
S':'
asbag69
(g90
g71
NtRp1343
(dp1344
g74
(dp1345
sg83
g1330
sg76
(lp1346
g69
(g70
g71
NtRp1347
(dp1348
g74
(dp1349
g82
I4
ssg83
g1343
sg76
(lp1350
S'8000'
p1351
asbasbasbag69
(g85
g71
NtRp1352
(dp1353
g74
(dp1354
sg83
g649
sg76
(lp1355
g69
(g90
g71
NtRp1356
(dp1357
g74
(dp1358
g94
g95
ssg83
g1352
sg76
(lp1359
S'server_protocol'
p1360
asbag69
(g90
g71
NtRp1361
(dp1362
g74
(dp1363
g101
g102
ssg83
g1352
sg76
(lp1364
S':'
asbag69
(g90
g71
NtRp1365
(dp1366
g74
(dp1367
sg83
g1352
sg76
(lp1368
g69
(g70
g71
NtRp1369
(dp1370
g74
(dp1371
g82
I4
ssg83
g1365
sg76
(lp1372
S'HTTP/1.1'
p1373
asbasbasbag69
(g85
g71
NtRp1374
(dp1375
g74
(dp1376
sg83
g649
sg76
(lp1377
g69
(g90
g71
NtRp1378
(dp1379
g74
(dp1380
g94
g95
ssg83
g1374
sg76
(lp1381
S'server_software'
p1382
asbag69
(g90
g71
NtRp1383
(dp1384
g74
(dp1385
g101
g102
ssg83
g1374
sg76
(lp1386
S':'
asbag69
(g90
g71
NtRp1387
(dp1388
g74
(dp1389
sg83
g1374
sg76
(lp1390
g69
(g70
g71
NtRp1391
(dp1392
g74
(dp1393
g82
I4
ssg83
g1387
sg76
(lp1394
S'Rocket 1.2.4'
p1395
asbasbasbag69
(g85
g71
NtRp1396
(dp1397
g74
(dp1398
sg83
g649
sg76
(lp1399
g69
(g90
g71
NtRp1400
(dp1401
g74
(dp1402
g94
g95
ssg83
g1396
sg76
(lp1403
S'web2py_crontype'
p1404
asbag69
(g90
g71
NtRp1405
(dp1406
g74
(dp1407
g101
g102
ssg83
g1396
sg76
(lp1408
S':'
asbag69
(g90
g71
NtRp1409
(dp1410
g74
(dp1411
sg83
g1396
sg76
(lp1412
g69
(g70
g71
NtRp1413
(dp1414
g74
(dp1415
g82
I4
ssg83
g1409
sg76
(lp1416
S'hard'
p1417
asbasbasbag69
(g85
g71
NtRp1418
(dp1419
g74
(dp1420
sg83
g649
sg76
(lp1421
g69
(g90
g71
NtRp1422
(dp1423
g74
(dp1424
g94
g95
ssg83
g1418
sg76
(lp1425
S'web2py_path'
p1426
asbag69
(g90
g71
NtRp1427
(dp1428
g74
(dp1429
g101
g102
ssg83
g1418
sg76
(lp1430
S':'
asbag69
(g90
g71
NtRp1431
(dp1432
g74
(dp1433
sg83
g1418
sg76
(lp1434
g69
(g70
g71
NtRp1435
(dp1436
g74
(dp1437
g82
I4
ssg83
g1431
sg76
(lp1438
g696
asbasbasbag69
(g85
g71
NtRp1439
(dp1440
g74
(dp1441
sg83
g649
sg76
(lp1442
g69
(g90
g71
NtRp1443
(dp1444
g74
(dp1445
g94
g95
ssg83
g1439
sg76
(lp1446
S'web2py_version'
p1447
asbag69
(g90
g71
NtRp1448
(dp1449
g74
(dp1450
g101
g102
ssg83
g1439
sg76
(lp1451
S':'
asbag69
(g90
g71
NtRp1452
(dp1453
g74
(dp1454
sg83
g1439
sg76
(lp1455
g69
(g70
g71
NtRp1456
(dp1457
g74
(dp1458
g82
I4
ssg83
g1452
sg76
(lp1459
g69
(g78
g71
NtRp1460
(dp1461
g74
(dp1462
g82
I3
ssg83
Nsg76
(lp1463
g69
(g85
g71
NtRp1464
(dp1465
g74
(dp1466
sg83
g1460
sg76
(lp1467
g69
(g90
g71
NtRp1468
(dp1469
g74
(dp1470
sg83
g1464
sg76
(lp1471
g69
(g70
g71
NtRp1472
(dp1473
g74
(dp1474
g82
I3
ssg83
g1468
sg76
(lp1475
S'1'
asbasbasbag69
(g85
g71
NtRp1476
(dp1477
g74
(dp1478
sg83
g1460
sg76
(lp1479
g69
(g90
g71
NtRp1480
(dp1481
g74
(dp1482
sg83
g1476
sg76
(lp1483
g69
(g70
g71
NtRp1484
(dp1485
g74
(dp1486
g82
I3
ssg83
g1480
sg76
(lp1487
S'99'
p1488
asbasbasbag69
(g85
g71
NtRp1489
(dp1490
g74
(dp1491
sg83
g1460
sg76
(lp1492
g69
(g90
g71
NtRp1493
(dp1494
g74
(dp1495
sg83
g1489
sg76
(lp1496
g69
(g70
g71
NtRp1497
(dp1498
g74
(dp1499
g82
I3
ssg83
g1493
sg76
(lp1500
S'4'
asbasbasbag69
(g85
g71
NtRp1501
(dp1502
g74
(dp1503
sg83
g1460
sg76
(lp1504
g69
(g90
g71
NtRp1505
(dp1506
g74
(dp1507
sg83
g1501
sg76
(lp1508
g69
(g70
g71
NtRp1509
(dp1510
g74
(dp1511
g82
I3
ssg83
g1505
sg76
(lp1512
S'datetime.datetime(2011, 12, 14, 14, 46, 14)'
p1513
asbasbasbag69
(g85
g71
NtRp1514
(dp1515
g74
(dp1516
sg83
g1460
sg76
(lp1517
g69
(g90
g71
NtRp1518
(dp1519
g74
(dp1520
sg83
g1514
sg76
(lp1521
g69
(g70
g71
NtRp1522
(dp1523
g74
(dp1524
g82
I3
ssg83
g1518
sg76
(lp1525
S'stable'
p1526
asbasbasbasbasbasbasbag69
(g85
g71
NtRp1527
(dp1528
g74
(dp1529
sg83
g649
sg76
(lp1530
g69
(g90
g71
NtRp1531
(dp1532
g74
(dp1533
g94
g95
ssg83
g1527
sg76
(lp1534
S'wsgi_errors'
p1535
asbag69
(g90
g71
NtRp1536
(dp1537
g74
(dp1538
g101
g102
ssg83
g1527
sg76
(lp1539
S':'
asbag69
(g90
g71
NtRp1540
(dp1541
g74
(dp1542
sg83
g1527
sg76
(lp1543
g69
(g70
g71
NtRp1544
(dp1545
g74
(dp1546
g82
I4
ssg83
g1540
sg76
(lp1547
S"<open file '<stderr>', mode 'w' at 0xb74420d0>"
p1548
asbasbasbag69
(g85
g71
NtRp1549
(dp1550
g74
(dp1551
sg83
g649
sg76
(lp1552
g69
(g90
g71
NtRp1553
(dp1554
g74
(dp1555
g94
g95
ssg83
g1549
sg76
(lp1556
S'wsgi_file_wrapper'
p1557
asbag69
(g90
g71
NtRp1558
(dp1559
g74
(dp1560
g101
g102
ssg83
g1549
sg76
(lp1561
S':'
asbag69
(g90
g71
NtRp1562
(dp1563
g74
(dp1564
sg83
g1549
sg76
(lp1565
g69
(g70
g71
NtRp1566
(dp1567
g74
(dp1568
g82
I4
ssg83
g1562
sg76
(lp1569
S'<class wsgiref.util.FileWrapper at 0xa1a720c>'
p1570
asbasbasbag69
(g85
g71
NtRp1571
(dp1572
g74
(dp1573
sg83
g649
sg76
(lp1574
g69
(g90
g71
NtRp1575
(dp1576
g74
(dp1577
g94
g95
ssg83
g1571
sg76
(lp1578
S'wsgi_input'
p1579
asbag69
(g90
g71
NtRp1580
(dp1581
g74
(dp1582
g101
g102
ssg83
g1571
sg76
(lp1583
S':'
asbag69
(g90
g71
NtRp1584
(dp1585
g74
(dp1586
sg83
g1571
sg76
(lp1587
g69
(g70
g71
NtRp1588
(dp1589
g74
(dp1590
g82
I4
ssg83
g1584
sg76
(lp1591
S'<socket._fileobject object at 0xa76092c>'
p1592
asbasbasbag69
(g85
g71
NtRp1593
(dp1594
g74
(dp1595
sg83
g649
sg76
(lp1596
g69
(g90
g71
NtRp1597
(dp1598
g74
(dp1599
g94
g95
ssg83
g1593
sg76
(lp1600
S'wsgi_multiprocess'
p1601
asbag69
(g90
g71
NtRp1602
(dp1603
g74
(dp1604
g101
g102
ssg83
g1593
sg76
(lp1605
S':'
asbag69
(g90
g71
NtRp1606
(dp1607
g74
(dp1608
sg83
g1593
sg76
(lp1609
g69
(g70
g71
NtRp1610
(dp1611
g74
(dp1612
g82
I4
ssg83
g1606
sg76
(lp1613
g112
asbasbasbag69
(g85
g71
NtRp1614
(dp1615
g74
(dp1616
sg83
g649
sg76
(lp1617
g69
(g90
g71
NtRp1618
(dp1619
g74
(dp1620
g94
g95
ssg83
g1614
sg76
(lp1621
S'wsgi_multithread'
p1622
asbag69
(g90
g71
NtRp1623
(dp1624
g74
(dp1625
g101
g102
ssg83
g1614
sg76
(lp1626
S':'
asbag69
(g90
g71
NtRp1627
(dp1628
g74
(dp1629
sg83
g1614
sg76
(lp1630
g69
(g70
g71
NtRp1631
(dp1632
g74
(dp1633
g82
I4
ssg83
g1627
sg76
(lp1634
S'True'
p1635
asbasbasbag69
(g85
g71
NtRp1636
(dp1637
g74
(dp1638
sg83
g649
sg76
(lp1639
g69
(g90
g71
NtRp1640
(dp1641
g74
(dp1642
g94
g95
ssg83
g1636
sg76
(lp1643
S'wsgi_run_once'
p1644
asbag69
(g90
g71
NtRp1645
(dp1646
g74
(dp1647
g101
g102
ssg83
g1636
sg76
(lp1648
S':'
asbag69
(g90
g71
NtRp1649
(dp1650
g74
(dp1651
sg83
g1636
sg76
(lp1652
g69
(g70
g71
NtRp1653
(dp1654
g74
(dp1655
g82
I4
ssg83
g1649
sg76
(lp1656
g112
asbasbasbag69
(g85
g71
NtRp1657
(dp1658
g74
(dp1659
sg83
g649
sg76
(lp1660
g69
(g90
g71
NtRp1661
(dp1662
g74
(dp1663
g94
g95
ssg83
g1657
sg76
(lp1664
S'wsgi_url_scheme'
p1665
asbag69
(g90
g71
NtRp1666
(dp1667
g74
(dp1668
g101
g102
ssg83
g1657
sg76
(lp1669
S':'
asbag69
(g90
g71
NtRp1670
(dp1671
g74
(dp1672
sg83
g1657
sg76
(lp1673
g69
(g70
g71
NtRp1674
(dp1675
g74
(dp1676
g82
I4
ssg83
g1670
sg76
(lp1677
S'http'
p1678
asbasbasbag69
(g85
g71
NtRp1679
(dp1680
g74
(dp1681
sg83
g649
sg76
(lp1682
g69
(g90
g71
NtRp1683
(dp1684
g74
(dp1685
g94
g95
ssg83
g1679
sg76
(lp1686
S'wsgi_version'
p1687
asbag69
(g90
g71
NtRp1688
(dp1689
g74
(dp1690
g101
g102
ssg83
g1679
sg76
(lp1691
S':'
asbag69
(g90
g71
NtRp1692
(dp1693
g74
(dp1694
sg83
g1679
sg76
(lp1695
g69
(g70
g71
NtRp1696
(dp1697
g74
(dp1698
g82
I4
ssg83
g1692
sg76
(lp1699
g69
(g78
g71
NtRp1700
(dp1701
g74
(dp1702
g82
I3
ssg83
Nsg76
(lp1703
g69
(g85
g71
NtRp1704
(dp1705
g74
(dp1706
sg83
g1700
sg76
(lp1707
g69
(g90
g71
NtRp1708
(dp1709
g74
(dp1710
sg83
g1704
sg76
(lp1711
g69
(g70
g71
NtRp1712
(dp1713
g74
(dp1714
g82
I3
ssg83
g1708
sg76
(lp1715
S'1'
asbasbasbag69
(g85
g71
NtRp1716
(dp1717
g74
(dp1718
sg83
g1700
sg76
(lp1719
g69
(g90
g71
NtRp1720
(dp1721
g74
(dp1722
sg83
g1716
sg76
(lp1723
g69
(g70
g71
NtRp1724
(dp1725
g74
(dp1726
g82
I3
ssg83
g1720
sg76
(lp1727
S'0'
asbasbasbasbasbasbasbasbasbasbasbag69
(g85
g71
NtRp1728
(dp1729
g74
(dp1730
sg83
g79
sg76
(lp1731
g69
(g90
g71
NtRp1732
(dp1733
g74
(dp1734
g94
g95
ssg83
g1728
sg76
(lp1735
S'extension'
p1736
asbag69
(g90
g71
NtRp1737
(dp1738
g74
(dp1739
g101
g102
ssg83
g1728
sg76
(lp1740
S':'
asbag69
(g90
g71
NtRp1741
(dp1742
g74
(dp1743
sg83
g1728
sg76
(lp1744
g69
(g70
g71
NtRp1745
(dp1746
g74
(dp1747
g82
I5
ssg83
g1741
sg76
(lp1748
S'html'
p1749
asbasbasbag69
(g85
g71
NtRp1750
(dp1751
g74
(dp1752
sg83
g79
sg76
(lp1753
g69
(g90
g71
NtRp1754
(dp1755
g74
(dp1756
g94
g95
ssg83
g1750
sg76
(lp1757
S'folder'
p1758
asbag69
(g90
g71
NtRp1759
(dp1760
g74
(dp1761
g101
g102
ssg83
g1750
sg76
(lp1762
S':'
asbag69
(g90
g71
NtRp1763
(dp1764
g74
(dp1765
sg83
g1750
sg76
(lp1766
g69
(g70
g71
NtRp1767
(dp1768
g74
(dp1769
g82
I5
ssg83
g1763
sg76
(lp1770
S'/home/kaique/Projects/WebApps/web2py/applications/makebrand/'
p1771
asbasbasbag69
(g85
g71
NtRp1772
(dp1773
g74
(dp1774
sg83
g79
sg76
(lp1775
g69
(g90
g71
NtRp1776
(dp1777
g74
(dp1778
g94
g95
ssg83
g1772
sg76
(lp1779
S'function'
p1780
asbag69
(g90
g71
NtRp1781
(dp1782
g74
(dp1783
g101
g102
ssg83
g1772
sg76
(lp1784
S':'
asbag69
(g90
g71
NtRp1785
(dp1786
g74
(dp1787
sg83
g1772
sg76
(lp1788
g69
(g70
g71
NtRp1789
(dp1790
g74
(dp1791
g82
I5
ssg83
g1785
sg76
(lp1792
S'new'
p1793
asbasbasbag69
(g85
g71
NtRp1794
(dp1795
g74
(dp1796
sg83
g79
sg76
(lp1797
g69
(g90
g71
NtRp1798
(dp1799
g74
(dp1800
g94
g95
ssg83
g1794
sg76
(lp1801
S'get_vars'
p1802
asbag69
(g90
g71
NtRp1803
(dp1804
g74
(dp1805
g101
g102
ssg83
g1794
sg76
(lp1806
S':'
asbag69
(g90
g71
NtRp1807
(dp1808
g74
(dp1809
sg83
g1794
sg76
(lp1810
g69
(g70
g71
NtRp1811
(dp1812
g74
(dp1813
g82
I5
ssg83
g1807
sg76
(lp1814
g69
(g78
g71
NtRp1815
(dp1816
g74
(dp1817
g82
I4
ssg83
Nsg76
(lp1818
sbasbasbasbag69
(g85
g71
NtRp1819
(dp1820
g74
(dp1821
sg83
g79
sg76
(lp1822
g69
(g90
g71
NtRp1823
(dp1824
g74
(dp1825
g94
g95
ssg83
g1819
sg76
(lp1826
S'global_settings'
p1827
asbag69
(g90
g71
NtRp1828
(dp1829
g74
(dp1830
g101
g102
ssg83
g1819
sg76
(lp1831
S':'
asbag69
(g90
g71
NtRp1832
(dp1833
g74
(dp1834
sg83
g1819
sg76
(lp1835
g69
(g70
g71
NtRp1836
(dp1837
g74
(dp1838
g82
I5
ssg83
g1832
sg76
(lp1839
g69
(g78
g71
NtRp1840
(dp1841
g74
(dp1842
g82
I4
ssg83
Nsg76
(lp1843
g69
(g85
g71
NtRp1844
(dp1845
g74
(dp1846
sg83
g1840
sg76
(lp1847
g69
(g90
g71
NtRp1848
(dp1849
g74
(dp1850
g94
g95
ssg83
g1844
sg76
(lp1851
g661
asbag69
(g90
g71
NtRp1852
(dp1853
g74
(dp1854
g101
g102
ssg83
g1844
sg76
(lp1855
S':'
asbag69
(g90
g71
NtRp1856
(dp1857
g74
(dp1858
sg83
g1844
sg76
(lp1859
g69
(g70
g71
NtRp1860
(dp1861
g74
(dp1862
g82
I4
ssg83
g1856
sg76
(lp1863
S"set(['/home/kaique/Projects/WebApps/web2py/applications/makebrand/', '/home/kaique/Projects/WebApps/web2py/applications/admin/'])"
p1864
asbasbasbag69
(g85
g71
NtRp1865
(dp1866
g74
(dp1867
sg83
g1840
sg76
(lp1868
g69
(g90
g71
NtRp1869
(dp1870
g74
(dp1871
g94
g95
ssg83
g1865
sg76
(lp1872
g683
asbag69
(g90
g71
NtRp1873
(dp1874
g74
(dp1875
g101
g102
ssg83
g1865
sg76
(lp1876
S':'
asbag69
(g90
g71
NtRp1877
(dp1878
g74
(dp1879
sg83
g1865
sg76
(lp1880
g69
(g70
g71
NtRp1881
(dp1882
g74
(dp1883
g82
I4
ssg83
g1877
sg76
(lp1884
g696
asbasbasbag69
(g85
g71
NtRp1885
(dp1886
g74
(dp1887
sg83
g1840
sg76
(lp1888
g69
(g90
g71
NtRp1889
(dp1890
g74
(dp1891
g94
g95
ssg83
g1885
sg76
(lp1892
g705
asbag69
(g90
g71
NtRp1893
(dp1894
g74
(dp1895
g101
g102
ssg83
g1885
sg76
(lp1896
S':'
asbag69
(g90
g71
NtRp1897
(dp1898
g74
(dp1899
sg83
g1885
sg76
(lp1900
g69
(g70
g71
NtRp1901
(dp1902
g74
(dp1903
g82
I4
ssg83
g1897
sg76
(lp1904
g69
(g78
g71
NtRp1905
(dp1906
g74
(dp1907
g82
I3
ssg83
Nsg76
(lp1908
sbasbasbasbag69
(g85
g71
NtRp1909
(dp1910
g74
(dp1911
sg83
g1840
sg76
(lp1912
g69
(g90
g71
NtRp1913
(dp1914
g74
(dp1915
g94
g95
ssg83
g1909
sg76
(lp1916
g730
asbag69
(g90
g71
NtRp1917
(dp1918
g74
(dp1919
g101
g102
ssg83
g1909
sg76
(lp1920
S':'
asbag69
(g90
g71
NtRp1921
(dp1922
g74
(dp1923
sg83
g1909
sg76
(lp1924
g69
(g70
g71
NtRp1925
(dp1926
g74
(dp1927
g82
I4
ssg83
g1921
sg76
(lp1928
S"<Values at 0xa1f67ec: {'verbose': False, 'ip': '127.0.0.1', 'shutdown_timeout': 5, 'taskbar': False, 'nocron': False, 'pid_filename': 'httpserver.pid', 'maxthreads': None, 'softcron': False, 'server_name': 'ubuntu', 'bpython': False, 'nogui': False, 'port': 8000, 'extcron': False, 'debuglevel': 30, 'test': None, 'folder': '/home/kaique/Projects/WebApps/web2py', 'config': '', 'import_models': False, 'winservice': '', 'shell': None, 'run': '', 'log_filename': 'httpserver.log', 'args': [''], 'socket_timeout': 1, 'ssl_ca_certificate': None, 'scheduler': None, 'profiler_filename': None, 'ssl_private_key': '', 'password': 'dev', 'request_queue_size': 5, 'ssl_certificate': '', 'cronjob': False, 'numthreads': None, 'quiet': False, 'interfaces': None, 'minthreads': None, 'timeout': 10, 'plain': False, 'nobanner': False}>"
p1929
asbasbasbag69
(g85
g71
NtRp1930
(dp1931
g74
(dp1932
sg83
g1840
sg76
(lp1933
g69
(g90
g71
NtRp1934
(dp1935
g74
(dp1936
g94
g95
ssg83
g1930
sg76
(lp1937
g796
asbag69
(g90
g71
NtRp1938
(dp1939
g74
(dp1940
g101
g102
ssg83
g1930
sg76
(lp1941
S':'
asbag69
(g90
g71
NtRp1942
(dp1943
g74
(dp1944
sg83
g1930
sg76
(lp1945
g69
(g70
g71
NtRp1946
(dp1947
g74
(dp1948
g82
I4
ssg83
g1942
sg76
(lp1949
S'set([])'
p1950
asbasbasbag69
(g85
g71
NtRp1951
(dp1952
g74
(dp1953
sg83
g1840
sg76
(lp1954
g69
(g90
g71
NtRp1955
(dp1956
g74
(dp1957
g94
g95
ssg83
g1951
sg76
(lp1958
g818
asbag69
(g90
g71
NtRp1959
(dp1960
g74
(dp1961
g101
g102
ssg83
g1951
sg76
(lp1962
S':'
asbag69
(g90
g71
NtRp1963
(dp1964
g74
(dp1965
sg83
g1951
sg76
(lp1966
g69
(g70
g71
NtRp1967
(dp1968
g74
(dp1969
g82
I4
ssg83
g1963
sg76
(lp1970
g112
asbasbasbag69
(g85
g71
NtRp1971
(dp1972
g74
(dp1973
sg83
g1840
sg76
(lp1974
g69
(g90
g71
NtRp1975
(dp1976
g74
(dp1977
g94
g95
ssg83
g1971
sg76
(lp1978
g839
asbag69
(g90
g71
NtRp1979
(dp1980
g74
(dp1981
g101
g102
ssg83
g1971
sg76
(lp1982
S':'
asbag69
(g90
g71
NtRp1983
(dp1984
g74
(dp1985
sg83
g1971
sg76
(lp1986
g69
(g70
g71
NtRp1987
(dp1988
g74
(dp1989
g82
I4
ssg83
g1983
sg76
(lp1990
g852
asbasbasbag69
(g85
g71
NtRp1991
(dp1992
g74
(dp1993
sg83
g1840
sg76
(lp1994
g69
(g90
g71
NtRp1995
(dp1996
g74
(dp1997
g94
g95
ssg83
g1991
sg76
(lp1998
g1145
asbag69
(g90
g71
NtRp1999
(dp2000
g74
(dp2001
g101
g102
ssg83
g1991
sg76
(lp2002
S':'
asbag69
(g90
g71
NtRp2003
(dp2004
g74
(dp2005
sg83
g1991
sg76
(lp2006
g69
(g70
g71
NtRp2007
(dp2008
g74
(dp2009
g82
I4
ssg83
g2003
sg76
(lp2010
g112
asbasbasbag69
(g85
g71
NtRp2011
(dp2012
g74
(dp2013
sg83
g1840
sg76
(lp2014
g69
(g90
g71
NtRp2015
(dp2016
g74
(dp2017
g94
g95
ssg83
g2011
sg76
(lp2018
g1166
asbag69
(g90
g71
NtRp2019
(dp2020
g74
(dp2021
g101
g102
ssg83
g2011
sg76
(lp2022
S':'
asbag69
(g90
g71
NtRp2023
(dp2024
g74
(dp2025
sg83
g2011
sg76
(lp2026
g69
(g70
g71
NtRp2027
(dp2028
g74
(dp2029
g82
I4
ssg83
g2023
sg76
(lp2030
g112
asbasbasbag69
(g85
g71
NtRp2031
(dp2032
g74
(dp2033
sg83
g1840
sg76
(lp2034
g69
(g90
g71
NtRp2035
(dp2036
g74
(dp2037
g94
g95
ssg83
g2031
sg76
(lp2038
g1404
asbag69
(g90
g71
NtRp2039
(dp2040
g74
(dp2041
g101
g102
ssg83
g2031
sg76
(lp2042
S':'
asbag69
(g90
g71
NtRp2043
(dp2044
g74
(dp2045
sg83
g2031
sg76
(lp2046
g69
(g70
g71
NtRp2047
(dp2048
g74
(dp2049
g82
I4
ssg83
g2043
sg76
(lp2050
g1417
asbasbasbag69
(g85
g71
NtRp2051
(dp2052
g74
(dp2053
sg83
g1840
sg76
(lp2054
g69
(g90
g71
NtRp2055
(dp2056
g74
(dp2057
g94
g95
ssg83
g2051
sg76
(lp2058
g1447
asbag69
(g90
g71
NtRp2059
(dp2060
g74
(dp2061
g101
g102
ssg83
g2051
sg76
(lp2062
S':'
asbag69
(g90
g71
NtRp2063
(dp2064
g74
(dp2065
sg83
g2051
sg76
(lp2066
g69
(g70
g71
NtRp2067
(dp2068
g74
(dp2069
g82
I4
ssg83
g2063
sg76
(lp2070
g69
(g78
g71
NtRp2071
(dp2072
g74
(dp2073
g82
I3
ssg83
Nsg76
(lp2074
g69
(g85
g71
NtRp2075
(dp2076
g74
(dp2077
sg83
g2071
sg76
(lp2078
g69
(g90
g71
NtRp2079
(dp2080
g74
(dp2081
sg83
g2075
sg76
(lp2082
g69
(g70
g71
NtRp2083
(dp2084
g74
(dp2085
g82
I3
ssg83
g2079
sg76
(lp2086
S'1'
asbasbasbag69
(g85
g71
NtRp2087
(dp2088
g74
(dp2089
sg83
g2071
sg76
(lp2090
g69
(g90
g71
NtRp2091
(dp2092
g74
(dp2093
sg83
g2087
sg76
(lp2094
g69
(g70
g71
NtRp2095
(dp2096
g74
(dp2097
g82
I3
ssg83
g2091
sg76
(lp2098
S'99'
p2099
asbasbasbag69
(g85
g71
NtRp2100
(dp2101
g74
(dp2102
sg83
g2071
sg76
(lp2103
g69
(g90
g71
NtRp2104
(dp2105
g74
(dp2106
sg83
g2100
sg76
(lp2107
g69
(g70
g71
NtRp2108
(dp2109
g74
(dp2110
g82
I3
ssg83
g2104
sg76
(lp2111
S'4'
asbasbasbag69
(g85
g71
NtRp2112
(dp2113
g74
(dp2114
sg83
g2071
sg76
(lp2115
g69
(g90
g71
NtRp2116
(dp2117
g74
(dp2118
sg83
g2112
sg76
(lp2119
g69
(g70
g71
NtRp2120
(dp2121
g74
(dp2122
g82
I3
ssg83
g2116
sg76
(lp2123
S'datetime.datetime(2011, 12, 14, 14, 46, 14)'
p2124
asbasbasbag69
(g85
g71
NtRp2125
(dp2126
g74
(dp2127
sg83
g2071
sg76
(lp2128
g69
(g90
g71
NtRp2129
(dp2130
g74
(dp2131
sg83
g2125
sg76
(lp2132
g69
(g70
g71
NtRp2133
(dp2134
g74
(dp2135
g82
I3
ssg83
g2129
sg76
(lp2136
g1526
asbasbasbasbasbasbasbasbasbasbasbag69
(g85
g71
NtRp2137
(dp2138
g74
(dp2139
sg83
g79
sg76
(lp2140
g69
(g90
g71
NtRp2141
(dp2142
g74
(dp2143
g94
g95
ssg83
g2137
sg76
(lp2144
S'is_https'
p2145
asbag69
(g90
g71
NtRp2146
(dp2147
g74
(dp2148
g101
g102
ssg83
g2137
sg76
(lp2149
S':'
asbag69
(g90
g71
NtRp2150
(dp2151
g74
(dp2152
sg83
g2137
sg76
(lp2153
g69
(g70
g71
NtRp2154
(dp2155
g74
(dp2156
g82
I5
ssg83
g2150
sg76
(lp2157
g112
asbasbasbag69
(g85
g71
NtRp2158
(dp2159
g74
(dp2160
sg83
g79
sg76
(lp2161
g69
(g90
g71
NtRp2162
(dp2163
g74
(dp2164
g94
g95
ssg83
g2158
sg76
(lp2165
S'is_local'
p2166
asbag69
(g90
g71
NtRp2167
(dp2168
g74
(dp2169
g101
g102
ssg83
g2158
sg76
(lp2170
S':'
asbag69
(g90
g71
NtRp2171
(dp2172
g74
(dp2173
sg83
g2158
sg76
(lp2174
g69
(g70
g71
NtRp2175
(dp2176
g74
(dp2177
g82
I5
ssg83
g2171
sg76
(lp2178
g1635
asbasbasbag69
(g85
g71
NtRp2179
(dp2180
g74
(dp2181
sg83
g79
sg76
(lp2182
g69
(g90
g71
NtRp2183
(dp2184
g74
(dp2185
g94
g95
ssg83
g2179
sg76
(lp2186
S'is_restful'
p2187
asbag69
(g90
g71
NtRp2188
(dp2189
g74
(dp2190
g101
g102
ssg83
g2179
sg76
(lp2191
S':'
asbag69
(g90
g71
NtRp2192
(dp2193
g74
(dp2194
sg83
g2179
sg76
(lp2195
g69
(g70
g71
NtRp2196
(dp2197
g74
(dp2198
g82
I5
ssg83
g2192
sg76
(lp2199
g112
asbasbasbag69
(g85
g71
NtRp2200
(dp2201
g74
(dp2202
sg83
g79
sg76
(lp2203
g69
(g90
g71
NtRp2204
(dp2205
g74
(dp2206
g94
g95
ssg83
g2200
sg76
(lp2207
S'now'
p2208
asbag69
(g90
g71
NtRp2209
(dp2210
g74
(dp2211
g101
g102
ssg83
g2200
sg76
(lp2212
S':'
asbag69
(g90
g71
NtRp2213
(dp2214
g74
(dp2215
sg83
g2200
sg76
(lp2216
g69
(g70
g71
NtRp2217
(dp2218
g74
(dp2219
g82
I5
ssg83
g2213
sg76
(lp2220
S'datetime.datetime(2012, 2, 1, 12, 4, 8, 541014)'
p2221
asbasbasbag69
(g85
g71
NtRp2222
(dp2223
g74
(dp2224
sg83
g79
sg76
(lp2225
g69
(g90
g71
NtRp2226
(dp2227
g74
(dp2228
g94
g95
ssg83
g2222
sg76
(lp2229
S'post_vars'
p2230
asbag69
(g90
g71
NtRp2231
(dp2232
g74
(dp2233
g101
g102
ssg83
g2222
sg76
(lp2234
S':'
asbag69
(g90
g71
NtRp2235
(dp2236
g74
(dp2237
sg83
g2222
sg76
(lp2238
g69
(g70
g71
NtRp2239
(dp2240
g74
(dp2241
g82
I5
ssg83
g2235
sg76
(lp2242
g69
(g78
g71
NtRp2243
(dp2244
g74
(dp2245
g82
I4
ssg83
Nsg76
(lp2246
g69
(g85
g71
NtRp2247
(dp2248
g74
(dp2249
sg83
g2243
sg76
(lp2250
g69
(g90
g71
NtRp2251
(dp2252
g74
(dp2253
g94
g95
ssg83
g2247
sg76
(lp2254
S'avatar'
p2255
asbag69
(g90
g71
NtRp2256
(dp2257
g74
(dp2258
g101
g102
ssg83
g2247
sg76
(lp2259
S':'
asbag69
(g90
g71
NtRp2260
(dp2261
g74
(dp2262
sg83
g2247
sg76
(lp2263
g69
(g70
g71
NtRp2264
(dp2265
g74
(dp2266
g82
I4
ssg83
g2260
sg76
(lp2267
S''
asbasbasbag69
(g85
g71
NtRp2268
(dp2269
g74
(dp2270
sg83
g2243
sg76
(lp2271
g69
(g90
g71
NtRp2272
(dp2273
g74
(dp2274
g94
g95
ssg83
g2268
sg76
(lp2275
S'description'
p2276
asbag69
(g90
g71
NtRp2277
(dp2278
g74
(dp2279
g101
g102
ssg83
g2268
sg76
(lp2280
S':'
asbag69
(g90
g71
NtRp2281
(dp2282
g74
(dp2283
sg83
g2268
sg76
(lp2284
g69
(g70
g71
NtRp2285
(dp2286
g74
(dp2287
g82
I4
ssg83
g2281
sg76
(lp2288
S'other test'
p2289
asbasbasbag69
(g85
g71
NtRp2290
(dp2291
g74
(dp2292
sg83
g2243
sg76
(lp2293
g69
(g90
g71
NtRp2294
(dp2295
g74
(dp2296
g94
g95
ssg83
g2290
sg76
(lp2297
S'name'
p2298
asbag69
(g90
g71
NtRp2299
(dp2300
g74
(dp2301
g101
g102
ssg83
g2290
sg76
(lp2302
S':'
asbag69
(g90
g71
NtRp2303
(dp2304
g74
(dp2305
sg83
g2290
sg76
(lp2306
g69
(g70
g71
NtRp2307
(dp2308
g74
(dp2309
g82
I4
ssg83
g2303
sg76
(lp2310
S'My test'
p2311
asbasbasbasbasbasbasbag69
(g85
g71
NtRp2312
(dp2313
g74
(dp2314
sg83
g79
sg76
(lp2315
g69
(g90
g71
NtRp2316
(dp2317
g74
(dp2318
g94
g95
ssg83
g2312
sg76
(lp2319
S'url'
p2320
asbag69
(g90
g71
NtRp2321
(dp2322
g74
(dp2323
g101
g102
ssg83
g2312
sg76
(lp2324
S':'
asbag69
(g90
g71
NtRp2325
(dp2326
g74
(dp2327
sg83
g2312
sg76
(lp2328
g69
(g70
g71
NtRp2329
(dp2330
g74
(dp2331
g82
I5
ssg83
g2325
sg76
(lp2332
S'/makebrand/client/new'
p2333
asbasbasbag69
(g85
g71
NtRp2334
(dp2335
g74
(dp2336
sg83
g79
sg76
(lp2337
g69
(g90
g71
NtRp2338
(dp2339
g74
(dp2340
g94
g95
ssg83
g2334
sg76
(lp2341
S'utcnow'
p2342
asbag69
(g90
g71
NtRp2343
(dp2344
g74
(dp2345
g101
g102
ssg83
g2334
sg76
(lp2346
S':'
asbag69
(g90
g71
NtRp2347
(dp2348
g74
(dp2349
sg83
g2334
sg76
(lp2350
g69
(g70
g71
NtRp2351
(dp2352
g74
(dp2353
g82
I5
ssg83
g2347
sg76
(lp2354
S'datetime.datetime(2012, 2, 1, 14, 4, 8, 541036)'
p2355
asbasbasbag69
(g85
g71
NtRp2356
(dp2357
g74
(dp2358
sg83
g79
sg76
(lp2359
g69
(g90
g71
NtRp2360
(dp2361
g74
(dp2362
g94
g95
ssg83
g2356
sg76
(lp2363
S'uuid'
p2364
asbag69
(g90
g71
NtRp2365
(dp2366
g74
(dp2367
g101
g102
ssg83
g2356
sg76
(lp2368
S':'
asbag69
(g90
g71
NtRp2369
(dp2370
g74
(dp2371
sg83
g2356
sg76
(lp2372
g69
(g70
g71
NtRp2373
(dp2374
g74
(dp2375
g82
I5
ssg83
g2369
sg76
(lp2376
S'makebrand/127.0.0.1.2012-02-01.12-04-08.7185f95a-6c96-4670-a6f6-14f791436670'
p2377
asbasbasbag69
(g85
g71
NtRp2378
(dp2379
g74
(dp2380
sg83
g79
sg76
(lp2381
g69
(g90
g71
NtRp2382
(dp2383
g74
(dp2384
g94
g95
ssg83
g2378
sg76
(lp2385
S'vars'
p2386
asbag69
(g90
g71
NtRp2387
(dp2388
g74
(dp2389
g101
g102
ssg83
g2378
sg76
(lp2390
S':'
asbag69
(g90
g71
NtRp2391
(dp2392
g74
(dp2393
sg83
g2378
sg76
(lp2394
g69
(g70
g71
NtRp2395
(dp2396
g74
(dp2397
g82
I5
ssg83
g2391
sg76
(lp2398
g69
(g78
g71
NtRp2399
(dp2400
g74
(dp2401
g82
I4
ssg83
Nsg76
(lp2402
g69
(g85
g71
NtRp2403
(dp2404
g74
(dp2405
sg83
g2399
sg76
(lp2406
g69
(g90
g71
NtRp2407
(dp2408
g74
(dp2409
g94
g95
ssg83
g2403
sg76
(lp2410
g2255
asbag69
(g90
g71
NtRp2411
(dp2412
g74
(dp2413
g101
g102
ssg83
g2403
sg76
(lp2414
S':'
asbag69
(g90
g71
NtRp2415
(dp2416
g74
(dp2417
sg83
g2403
sg76
(lp2418
g69
(g70
g71
NtRp2419
(dp2420
g74
(dp2421
g82
I4
ssg83
g2415
sg76
(lp2422
S''
asbasbasbag69
(g85
g71
NtRp2423
(dp2424
g74
(dp2425
sg83
g2399
sg76
(lp2426
g69
(g90
g71
NtRp2427
(dp2428
g74
(dp2429
g94
g95
ssg83
g2423
sg76
(lp2430
g2276
asbag69
(g90
g71
NtRp2431
(dp2432
g74
(dp2433
g101
g102
ssg83
g2423
sg76
(lp2434
S':'
asbag69
(g90
g71
NtRp2435
(dp2436
g74
(dp2437
sg83
g2423
sg76
(lp2438
g69
(g70
g71
NtRp2439
(dp2440
g74
(dp2441
g82
I4
ssg83
g2435
sg76
(lp2442
g2289
asbasbasbag69
(g85
g71
NtRp2443
(dp2444
g74
(dp2445
sg83
g2399
sg76
(lp2446
g69
(g90
g71
NtRp2447
(dp2448
g74
(dp2449
g94
g95
ssg83
g2443
sg76
(lp2450
g2298
asbag69
(g90
g71
NtRp2451
(dp2452
g74
(dp2453
g101
g102
ssg83
g2443
sg76
(lp2454
S':'
asbag69
(g90
g71
NtRp2455
(dp2456
g74
(dp2457
sg83
g2443
sg76
(lp2458
g69
(g70
g71
NtRp2459
(dp2460
g74
(dp2461
g82
I4
ssg83
g2455
sg76
(lp2462
g2311
asbasbasbasbasbasbasbag69
(g85
g71
NtRp2463
(dp2464
g74
(dp2465
sg83
g79
sg76
(lp2466
g69
(g90
g71
NtRp2467
(dp2468
g74
(dp2469
g94
g95
ssg83
g2463
sg76
(lp2470
S'wsgi'
p2471
asbag69
(g90
g71
NtRp2472
(dp2473
g74
(dp2474
g101
g102
ssg83
g2463
sg76
(lp2475
S':'
asbag69
(g90
g71
NtRp2476
(dp2477
g74
(dp2478
sg83
g2463
sg76
(lp2479
g69
(g70
g71
NtRp2480
(dp2481
g74
(dp2482
g82
I5
ssg83
g2476
sg76
(lp2483
g69
(g78
g71
NtRp2484
(dp2485
g74
(dp2486
g82
I4
ssg83
Nsg76
(lp2487
g69
(g85
g71
NtRp2488
(dp2489
g74
(dp2490
sg83
g2484
sg76
(lp2491
g69
(g90
g71
NtRp2492
(dp2493
g74
(dp2494
g94
g95
ssg83
g2488
sg76
(lp2495
S'environ'
p2496
asbag69
(g90
g71
NtRp2497
(dp2498
g74
(dp2499
g101
g102
ssg83
g2488
sg76
(lp2500
S':'
asbag69
(g90
g71
NtRp2501
(dp2502
g74
(dp2503
sg83
g2488
sg76
(lp2504
g69
(g70
g71
NtRp2505
(dp2506
g74
(dp2507
g82
I4
ssg83
g2501
sg76
(lp2508
g69
(g78
g71
NtRp2509
(dp2510
g74
(dp2511
g82
I3
ssg83
Nsg76
(lp2512
g69
(g85
g71
NtRp2513
(dp2514
g74
(dp2515
sg83
g2509
sg76
(lp2516
g69
(g90
g71
NtRp2517
(dp2518
g74
(dp2519
g94
g95
ssg83
g2513
sg76
(lp2520
S'CONTENT_LENGTH'
p2521
asbag69
(g90
g71
NtRp2522
(dp2523
g74
(dp2524
g101
g102
ssg83
g2513
sg76
(lp2525
S':'
asbag69
(g90
g71
NtRp2526
(dp2527
g74
(dp2528
sg83
g2513
sg76
(lp2529
g69
(g70
g71
NtRp2530
(dp2531
g74
(dp2532
g82
I3
ssg83
g2526
sg76
(lp2533
g765
asbasbasbag69
(g85
g71
NtRp2534
(dp2535
g74
(dp2536
sg83
g2509
sg76
(lp2537
g69
(g90
g71
NtRp2538
(dp2539
g74
(dp2540
g94
g95
ssg83
g2534
sg76
(lp2541
S'CONTENT_TYPE'
p2542
asbag69
(g90
g71
NtRp2543
(dp2544
g74
(dp2545
g101
g102
ssg83
g2534
sg76
(lp2546
S':'
asbag69
(g90
g71
NtRp2547
(dp2548
g74
(dp2549
sg83
g2534
sg76
(lp2550
g69
(g70
g71
NtRp2551
(dp2552
g74
(dp2553
g82
I3
ssg83
g2547
sg76
(lp2554
g787
asbasbasbag69
(g85
g71
NtRp2555
(dp2556
g74
(dp2557
sg83
g2509
sg76
(lp2558
g69
(g90
g71
NtRp2559
(dp2560
g74
(dp2561
g94
g95
ssg83
g2555
sg76
(lp2562
S'HTTP_ACCEPT'
p2563
asbag69
(g90
g71
NtRp2564
(dp2565
g74
(dp2566
g101
g102
ssg83
g2555
sg76
(lp2567
S':'
asbag69
(g90
g71
NtRp2568
(dp2569
g74
(dp2570
sg83
g2555
sg76
(lp2571
g69
(g70
g71
NtRp2572
(dp2573
g74
(dp2574
g82
I3
ssg83
g2568
sg76
(lp2575
g874
asbasbasbag69
(g85
g71
NtRp2576
(dp2577
g74
(dp2578
sg83
g2509
sg76
(lp2579
g69
(g90
g71
NtRp2580
(dp2581
g74
(dp2582
g94
g95
ssg83
g2576
sg76
(lp2583
S'HTTP_ACCEPT_CHARSET'
p2584
asbag69
(g90
g71
NtRp2585
(dp2586
g74
(dp2587
g101
g102
ssg83
g2576
sg76
(lp2588
S':'
asbag69
(g90
g71
NtRp2589
(dp2590
g74
(dp2591
sg83
g2576
sg76
(lp2592
g69
(g70
g71
NtRp2593
(dp2594
g74
(dp2595
g82
I3
ssg83
g2589
sg76
(lp2596
g896
asbasbasbag69
(g85
g71
NtRp2597
(dp2598
g74
(dp2599
sg83
g2509
sg76
(lp2600
g69
(g90
g71
NtRp2601
(dp2602
g74
(dp2603
g94
g95
ssg83
g2597
sg76
(lp2604
S'HTTP_ACCEPT_ENCODING'
p2605
asbag69
(g90
g71
NtRp2606
(dp2607
g74
(dp2608
g101
g102
ssg83
g2597
sg76
(lp2609
S':'
asbag69
(g90
g71
NtRp2610
(dp2611
g74
(dp2612
sg83
g2597
sg76
(lp2613
g69
(g70
g71
NtRp2614
(dp2615
g74
(dp2616
g82
I3
ssg83
g2610
sg76
(lp2617
g918
asbasbasbag69
(g85
g71
NtRp2618
(dp2619
g74
(dp2620
sg83
g2509
sg76
(lp2621
g69
(g90
g71
NtRp2622
(dp2623
g74
(dp2624
g94
g95
ssg83
g2618
sg76
(lp2625
S'HTTP_ACCEPT_LANGUAGE'
p2626
asbag69
(g90
g71
NtRp2627
(dp2628
g74
(dp2629
g101
g102
ssg83
g2618
sg76
(lp2630
S':'
asbag69
(g90
g71
NtRp2631
(dp2632
g74
(dp2633
sg83
g2618
sg76
(lp2634
g69
(g70
g71
NtRp2635
(dp2636
g74
(dp2637
g82
I3
ssg83
g2631
sg76
(lp2638
g940
asbasbasbag69
(g85
g71
NtRp2639
(dp2640
g74
(dp2641
sg83
g2509
sg76
(lp2642
g69
(g90
g71
NtRp2643
(dp2644
g74
(dp2645
g94
g95
ssg83
g2639
sg76
(lp2646
S'HTTP_CACHE_CONTROL'
p2647
asbag69
(g90
g71
NtRp2648
(dp2649
g74
(dp2650
g101
g102
ssg83
g2639
sg76
(lp2651
S':'
asbag69
(g90
g71
NtRp2652
(dp2653
g74
(dp2654
sg83
g2639
sg76
(lp2655
g69
(g70
g71
NtRp2656
(dp2657
g74
(dp2658
g82
I3
ssg83
g2652
sg76
(lp2659
g962
asbasbasbag69
(g85
g71
NtRp2660
(dp2661
g74
(dp2662
sg83
g2509
sg76
(lp2663
g69
(g90
g71
NtRp2664
(dp2665
g74
(dp2666
g94
g95
ssg83
g2660
sg76
(lp2667
S'HTTP_CONNECTION'
p2668
asbag69
(g90
g71
NtRp2669
(dp2670
g74
(dp2671
g101
g102
ssg83
g2660
sg76
(lp2672
S':'
asbag69
(g90
g71
NtRp2673
(dp2674
g74
(dp2675
sg83
g2660
sg76
(lp2676
g69
(g70
g71
NtRp2677
(dp2678
g74
(dp2679
g82
I3
ssg83
g2673
sg76
(lp2680
g984
asbasbasbag69
(g85
g71
NtRp2681
(dp2682
g74
(dp2683
sg83
g2509
sg76
(lp2684
g69
(g90
g71
NtRp2685
(dp2686
g74
(dp2687
g94
g95
ssg83
g2681
sg76
(lp2688
S'HTTP_CONTENT_LENGTH'
p2689
asbag69
(g90
g71
NtRp2690
(dp2691
g74
(dp2692
g101
g102
ssg83
g2681
sg76
(lp2693
S':'
asbag69
(g90
g71
NtRp2694
(dp2695
g74
(dp2696
sg83
g2681
sg76
(lp2697
g69
(g70
g71
NtRp2698
(dp2699
g74
(dp2700
g82
I3
ssg83
g2694
sg76
(lp2701
g765
asbasbasbag69
(g85
g71
NtRp2702
(dp2703
g74
(dp2704
sg83
g2509
sg76
(lp2705
g69
(g90
g71
NtRp2706
(dp2707
g74
(dp2708
g94
g95
ssg83
g2702
sg76
(lp2709
S'HTTP_CONTENT_TYPE'
p2710
asbag69
(g90
g71
NtRp2711
(dp2712
g74
(dp2713
g101
g102
ssg83
g2702
sg76
(lp2714
S':'
asbag69
(g90
g71
NtRp2715
(dp2716
g74
(dp2717
sg83
g2702
sg76
(lp2718
g69
(g70
g71
NtRp2719
(dp2720
g74
(dp2721
g82
I3
ssg83
g2715
sg76
(lp2722
g787
asbasbasbag69
(g85
g71
NtRp2723
(dp2724
g74
(dp2725
sg83
g2509
sg76
(lp2726
g69
(g90
g71
NtRp2727
(dp2728
g74
(dp2729
g94
g95
ssg83
g2723
sg76
(lp2730
S'HTTP_COOKIE'
p2731
asbag69
(g90
g71
NtRp2732
(dp2733
g74
(dp2734
g101
g102
ssg83
g2723
sg76
(lp2735
S':'
asbag69
(g90
g71
NtRp2736
(dp2737
g74
(dp2738
sg83
g2723
sg76
(lp2739
g69
(g70
g71
NtRp2740
(dp2741
g74
(dp2742
g82
I3
ssg83
g2736
sg76
(lp2743
g1048
asbasbasbag69
(g85
g71
NtRp2744
(dp2745
g74
(dp2746
sg83
g2509
sg76
(lp2747
g69
(g90
g71
NtRp2748
(dp2749
g74
(dp2750
g94
g95
ssg83
g2744
sg76
(lp2751
S'HTTP_HOST'
p2752
asbag69
(g90
g71
NtRp2753
(dp2754
g74
(dp2755
g101
g102
ssg83
g2744
sg76
(lp2756
S':'
asbag69
(g90
g71
NtRp2757
(dp2758
g74
(dp2759
sg83
g2744
sg76
(lp2760
g69
(g70
g71
NtRp2761
(dp2762
g74
(dp2763
g82
I3
ssg83
g2757
sg76
(lp2764
g1070
asbasbasbag69
(g85
g71
NtRp2765
(dp2766
g74
(dp2767
sg83
g2509
sg76
(lp2768
g69
(g90
g71
NtRp2769
(dp2770
g74
(dp2771
g94
g95
ssg83
g2765
sg76
(lp2772
S'HTTP_ORIGIN'
p2773
asbag69
(g90
g71
NtRp2774
(dp2775
g74
(dp2776
g101
g102
ssg83
g2765
sg76
(lp2777
S':'
asbag69
(g90
g71
NtRp2778
(dp2779
g74
(dp2780
sg83
g2765
sg76
(lp2781
g69
(g70
g71
NtRp2782
(dp2783
g74
(dp2784
g82
I3
ssg83
g2778
sg76
(lp2785
g1092
asbasbasbag69
(g85
g71
NtRp2786
(dp2787
g74
(dp2788
sg83
g2509
sg76
(lp2789
g69
(g90
g71
NtRp2790
(dp2791
g74
(dp2792
g94
g95
ssg83
g2786
sg76
(lp2793
S'HTTP_REFERER'
p2794
asbag69
(g90
g71
NtRp2795
(dp2796
g74
(dp2797
g101
g102
ssg83
g2786
sg76
(lp2798
S':'
asbag69
(g90
g71
NtRp2799
(dp2800
g74
(dp2801
sg83
g2786
sg76
(lp2802
g69
(g70
g71
NtRp2803
(dp2804
g74
(dp2805
g82
I3
ssg83
g2799
sg76
(lp2806
g1114
asbasbasbag69
(g85
g71
NtRp2807
(dp2808
g74
(dp2809
sg83
g2509
sg76
(lp2810
g69
(g90
g71
NtRp2811
(dp2812
g74
(dp2813
g94
g95
ssg83
g2807
sg76
(lp2814
S'HTTP_USER_AGENT'
p2815
asbag69
(g90
g71
NtRp2816
(dp2817
g74
(dp2818
g101
g102
ssg83
g2807
sg76
(lp2819
S':'
asbag69
(g90
g71
NtRp2820
(dp2821
g74
(dp2822
sg83
g2807
sg76
(lp2823
g69
(g70
g71
NtRp2824
(dp2825
g74
(dp2826
g82
I3
ssg83
g2820
sg76
(lp2827
g1136
asbasbasbag69
(g85
g71
NtRp2828
(dp2829
g74
(dp2830
sg83
g2509
sg76
(lp2831
g69
(g90
g71
NtRp2832
(dp2833
g74
(dp2834
g94
g95
ssg83
g2828
sg76
(lp2835
S'PATH_INFO'
p2836
asbag69
(g90
g71
NtRp2837
(dp2838
g74
(dp2839
g101
g102
ssg83
g2828
sg76
(lp2840
S':'
asbag69
(g90
g71
NtRp2841
(dp2842
g74
(dp2843
sg83
g2828
sg76
(lp2844
g69
(g70
g71
NtRp2845
(dp2846
g74
(dp2847
g82
I3
ssg83
g2841
sg76
(lp2848
g1200
asbasbasbag69
(g85
g71
NtRp2849
(dp2850
g74
(dp2851
sg83
g2509
sg76
(lp2852
g69
(g90
g71
NtRp2853
(dp2854
g74
(dp2855
g94
g95
ssg83
g2849
sg76
(lp2856
S'QUERY_STRING'
p2857
asbag69
(g90
g71
NtRp2858
(dp2859
g74
(dp2860
g101
g102
ssg83
g2849
sg76
(lp2861
S':'
asbag69
(g90
g71
NtRp2862
(dp2863
g74
(dp2864
sg83
g2849
sg76
(lp2865
g69
(g70
g71
NtRp2866
(dp2867
g74
(dp2868
g82
I3
ssg83
g2862
sg76
(lp2869
S''
asbasbasbag69
(g85
g71
NtRp2870
(dp2871
g74
(dp2872
sg83
g2509
sg76
(lp2873
g69
(g90
g71
NtRp2874
(dp2875
g74
(dp2876
g94
g95
ssg83
g2870
sg76
(lp2877
S'REMOTE_ADDR'
p2878
asbag69
(g90
g71
NtRp2879
(dp2880
g74
(dp2881
g101
g102
ssg83
g2870
sg76
(lp2882
S':'
asbag69
(g90
g71
NtRp2883
(dp2884
g74
(dp2885
sg83
g2870
sg76
(lp2886
g69
(g70
g71
NtRp2887
(dp2888
g74
(dp2889
g82
I3
ssg83
g2883
sg76
(lp2890
g202
asbasbasbag69
(g85
g71
NtRp2891
(dp2892
g74
(dp2893
sg83
g2509
sg76
(lp2894
g69
(g90
g71
NtRp2895
(dp2896
g74
(dp2897
g94
g95
ssg83
g2891
sg76
(lp2898
S'REMOTE_PORT'
p2899
asbag69
(g90
g71
NtRp2900
(dp2901
g74
(dp2902
g101
g102
ssg83
g2891
sg76
(lp2903
S':'
asbag69
(g90
g71
NtRp2904
(dp2905
g74
(dp2906
sg83
g2891
sg76
(lp2907
g69
(g70
g71
NtRp2908
(dp2909
g74
(dp2910
g82
I3
ssg83
g2904
sg76
(lp2911
g1264
asbasbasbag69
(g85
g71
NtRp2912
(dp2913
g74
(dp2914
sg83
g2509
sg76
(lp2915
g69
(g90
g71
NtRp2916
(dp2917
g74
(dp2918
g94
g95
ssg83
g2912
sg76
(lp2919
S'REQUEST_METHOD'
p2920
asbag69
(g90
g71
NtRp2921
(dp2922
g74
(dp2923
g101
g102
ssg83
g2912
sg76
(lp2924
S':'
asbag69
(g90
g71
NtRp2925
(dp2926
g74
(dp2927
sg83
g2912
sg76
(lp2928
g69
(g70
g71
NtRp2929
(dp2930
g74
(dp2931
g82
I3
ssg83
g2925
sg76
(lp2932
g1286
asbasbasbag69
(g85
g71
NtRp2933
(dp2934
g74
(dp2935
sg83
g2509
sg76
(lp2936
g69
(g90
g71
NtRp2937
(dp2938
g74
(dp2939
g94
g95
ssg83
g2933
sg76
(lp2940
S'SCRIPT_NAME'
p2941
asbag69
(g90
g71
NtRp2942
(dp2943
g74
(dp2944
g101
g102
ssg83
g2933
sg76
(lp2945
S':'
asbag69
(g90
g71
NtRp2946
(dp2947
g74
(dp2948
sg83
g2933
sg76
(lp2949
g69
(g70
g71
NtRp2950
(dp2951
g74
(dp2952
g82
I3
ssg83
g2946
sg76
(lp2953
S''
asbasbasbag69
(g85
g71
NtRp2954
(dp2955
g74
(dp2956
sg83
g2509
sg76
(lp2957
g69
(g90
g71
NtRp2958
(dp2959
g74
(dp2960
g94
g95
ssg83
g2954
sg76
(lp2961
S'SERVER_NAME'
p2962
asbag69
(g90
g71
NtRp2963
(dp2964
g74
(dp2965
g101
g102
ssg83
g2954
sg76
(lp2966
S':'
asbag69
(g90
g71
NtRp2967
(dp2968
g74
(dp2969
sg83
g2954
sg76
(lp2970
g69
(g70
g71
NtRp2971
(dp2972
g74
(dp2973
g82
I3
ssg83
g2967
sg76
(lp2974
g1329
asbasbasbag69
(g85
g71
NtRp2975
(dp2976
g74
(dp2977
sg83
g2509
sg76
(lp2978
g69
(g90
g71
NtRp2979
(dp2980
g74
(dp2981
g94
g95
ssg83
g2975
sg76
(lp2982
S'SERVER_PORT'
p2983
asbag69
(g90
g71
NtRp2984
(dp2985
g74
(dp2986
g101
g102
ssg83
g2975
sg76
(lp2987
S':'
asbag69
(g90
g71
NtRp2988
(dp2989
g74
(dp2990
sg83
g2975
sg76
(lp2991
g69
(g70
g71
NtRp2992
(dp2993
g74
(dp2994
g82
I3
ssg83
g2988
sg76
(lp2995
g1351
asbasbasbag69
(g85
g71
NtRp2996
(dp2997
g74
(dp2998
sg83
g2509
sg76
(lp2999
g69
(g90
g71
NtRp3000
(dp3001
g74
(dp3002
g94
g95
ssg83
g2996
sg76
(lp3003
S'SERVER_PROTOCOL'
p3004
asbag69
(g90
g71
NtRp3005
(dp3006
g74
(dp3007
g101
g102
ssg83
g2996
sg76
(lp3008
S':'
asbag69
(g90
g71
NtRp3009
(dp3010
g74
(dp3011
sg83
g2996
sg76
(lp3012
g69
(g70
g71
NtRp3013
(dp3014
g74
(dp3015
g82
I3
ssg83
g3009
sg76
(lp3016
g1373
asbasbasbag69
(g85
g71
NtRp3017
(dp3018
g74
(dp3019
sg83
g2509
sg76
(lp3020
g69
(g90
g71
NtRp3021
(dp3022
g74
(dp3023
g94
g95
ssg83
g3017
sg76
(lp3024
S'SERVER_SOFTWARE'
p3025
asbag69
(g90
g71
NtRp3026
(dp3027
g74
(dp3028
g101
g102
ssg83
g3017
sg76
(lp3029
S':'
asbag69
(g90
g71
NtRp3030
(dp3031
g74
(dp3032
sg83
g3017
sg76
(lp3033
g69
(g70
g71
NtRp3034
(dp3035
g74
(dp3036
g82
I3
ssg83
g3030
sg76
(lp3037
g1395
asbasbasbag69
(g85
g71
NtRp3038
(dp3039
g74
(dp3040
sg83
g2509
sg76
(lp3041
g69
(g90
g71
NtRp3042
(dp3043
g74
(dp3044
g94
g95
ssg83
g3038
sg76
(lp3045
S'wsgi.errors'
p3046
asbag69
(g90
g71
NtRp3047
(dp3048
g74
(dp3049
g101
g102
ssg83
g3038
sg76
(lp3050
S':'
asbag69
(g90
g71
NtRp3051
(dp3052
g74
(dp3053
sg83
g3038
sg76
(lp3054
g69
(g70
g71
NtRp3055
(dp3056
g74
(dp3057
g82
I3
ssg83
g3051
sg76
(lp3058
S"<open file '<stderr>', mode 'w' at 0xb74420d0>"
p3059
asbasbasbag69
(g85
g71
NtRp3060
(dp3061
g74
(dp3062
sg83
g2509
sg76
(lp3063
g69
(g90
g71
NtRp3064
(dp3065
g74
(dp3066
g94
g95
ssg83
g3060
sg76
(lp3067
S'wsgi.file_wrapper'
p3068
asbag69
(g90
g71
NtRp3069
(dp3070
g74
(dp3071
g101
g102
ssg83
g3060
sg76
(lp3072
S':'
asbag69
(g90
g71
NtRp3073
(dp3074
g74
(dp3075
sg83
g3060
sg76
(lp3076
g69
(g70
g71
NtRp3077
(dp3078
g74
(dp3079
g82
I3
ssg83
g3073
sg76
(lp3080
S'<class wsgiref.util.FileWrapper at 0xa1a720c>'
p3081
asbasbasbag69
(g85
g71
NtRp3082
(dp3083
g74
(dp3084
sg83
g2509
sg76
(lp3085
g69
(g90
g71
NtRp3086
(dp3087
g74
(dp3088
g94
g95
ssg83
g3082
sg76
(lp3089
S'wsgi.input'
p3090
asbag69
(g90
g71
NtRp3091
(dp3092
g74
(dp3093
g101
g102
ssg83
g3082
sg76
(lp3094
S':'
asbag69
(g90
g71
NtRp3095
(dp3096
g74
(dp3097
sg83
g3082
sg76
(lp3098
g69
(g70
g71
NtRp3099
(dp3100
g74
(dp3101
g82
I3
ssg83
g3095
sg76
(lp3102
S"<open file '<fdopen>', mode 'w+b' at 0xa7675f8>"
p3103
asbasbasbag69
(g85
g71
NtRp3104
(dp3105
g74
(dp3106
sg83
g2509
sg76
(lp3107
g69
(g90
g71
NtRp3108
(dp3109
g74
(dp3110
g94
g95
ssg83
g3104
sg76
(lp3111
S'wsgi.multiprocess'
p3112
asbag69
(g90
g71
NtRp3113
(dp3114
g74
(dp3115
g101
g102
ssg83
g3104
sg76
(lp3116
S':'
asbag69
(g90
g71
NtRp3117
(dp3118
g74
(dp3119
sg83
g3104
sg76
(lp3120
g69
(g70
g71
NtRp3121
(dp3122
g74
(dp3123
g82
I3
ssg83
g3117
sg76
(lp3124
g112
asbasbasbag69
(g85
g71
NtRp3125
(dp3126
g74
(dp3127
sg83
g2509
sg76
(lp3128
g69
(g90
g71
NtRp3129
(dp3130
g74
(dp3131
g94
g95
ssg83
g3125
sg76
(lp3132
S'wsgi.multithread'
p3133
asbag69
(g90
g71
NtRp3134
(dp3135
g74
(dp3136
g101
g102
ssg83
g3125
sg76
(lp3137
S':'
asbag69
(g90
g71
NtRp3138
(dp3139
g74
(dp3140
sg83
g3125
sg76
(lp3141
g69
(g70
g71
NtRp3142
(dp3143
g74
(dp3144
g82
I3
ssg83
g3138
sg76
(lp3145
g1635
asbasbasbag69
(g85
g71
NtRp3146
(dp3147
g74
(dp3148
sg83
g2509
sg76
(lp3149
g69
(g90
g71
NtRp3150
(dp3151
g74
(dp3152
g94
g95
ssg83
g3146
sg76
(lp3153
S'wsgi.run_once'
p3154
asbag69
(g90
g71
NtRp3155
(dp3156
g74
(dp3157
g101
g102
ssg83
g3146
sg76
(lp3158
S':'
asbag69
(g90
g71
NtRp3159
(dp3160
g74
(dp3161
sg83
g3146
sg76
(lp3162
g69
(g70
g71
NtRp3163
(dp3164
g74
(dp3165
g82
I3
ssg83
g3159
sg76
(lp3166
g112
asbasbasbag69
(g85
g71
NtRp3167
(dp3168
g74
(dp3169
sg83
g2509
sg76
(lp3170
g69
(g90
g71
NtRp3171
(dp3172
g74
(dp3173
g94
g95
ssg83
g3167
sg76
(lp3174
S'wsgi.url_scheme'
p3175
asbag69
(g90
g71
NtRp3176
(dp3177
g74
(dp3178
g101
g102
ssg83
g3167
sg76
(lp3179
S':'
asbag69
(g90
g71
NtRp3180
(dp3181
g74
(dp3182
sg83
g3167
sg76
(lp3183
g69
(g70
g71
NtRp3184
(dp3185
g74
(dp3186
g82
I3
ssg83
g3180
sg76
(lp3187
g1678
asbasbasbag69
(g85
g71
NtRp3188
(dp3189
g74
(dp3190
sg83
g2509
sg76
(lp3191
g69
(g90
g71
NtRp3192
(dp3193
g74
(dp3194
g94
g95
ssg83
g3188
sg76
(lp3195
S'wsgi.version'
p3196
asbag69
(g90
g71
NtRp3197
(dp3198
g74
(dp3199
g101
g102
ssg83
g3188
sg76
(lp3200
S':'
asbag69
(g90
g71
NtRp3201
(dp3202
g74
(dp3203
sg83
g3188
sg76
(lp3204
g69
(g70
g71
NtRp3205
(dp3206
g74
(dp3207
g82
I3
ssg83
g3201
sg76
(lp3208
S'1'
asbasbasbasbasbasbasbasbasbasbasbasbasbsS'frames'
p3209
(lp3210
(dp3211
S'file'
p3212
S'/home/kaique/Projects/WebApps/web2py/gluon/restricted.py'
p3213
sS'dump'
p3214
(dp3215
S'environment'
p3216
S"{'A': <class 'gluon.html.A'>, 'Auth': <class 'gluon.tools.Auth'>, 'B': <class 'gluon.html.B'>, 'BEAUTIFY': <class 'gluon.html.BEAUTIFY'>, 'BODY': <class 'gluon.html.BODY'>, 'BR': <class 'gluon.html.BR'>, 'BUTTON': <class 'gluon.html.BUTTON'>, 'CAT': <class 'gluon.html.CAT'>, 'CENTER': <class 'gluon.html.CENTER'>, 'CLEANUP': <class 'gluon.validators.CLEANUP'>, ...}"
p3217
sS'ccode'
p3218
S'<code object <module> at 0xa7a64a0, file "/home/...cations/makebrand/controllers/client.py", line 2>'
p3219
ssS'lnum'
p3220
I204
sS'lines'
p3221
(dp3222
I199
S'    try:'
p3223
sI200
S'        if type(code) == types.CodeType:'
p3224
sI201
S'            ccode = code'
p3225
sI202
S'        else:'
p3226
sI203
S'            ccode = compile2(code,layer)'
p3227
sI204
S'        exec ccode in environment'
p3228
sI205
S'    except HTTP:'
p3229
sI206
S'        raise'
p3230
sI207
S'    except RestrictedError:'
p3231
sI208
S'        # do not encapsulate (obfuscate) the original RestrictedError'
p3232
ssS'call'
p3233
S"(code='# -*- coding: utf-8 -*-\\nfrom applications.makebr...e():\\n\\tpass\\n\\nresponse._vars=response._caller(new)\\n', environment={'A': <class 'gluon.html.A'>, 'Auth': <class 'gluon.tools.Auth'>, 'B': <class 'gluon.html.B'>, 'BEAUTIFY': <class 'gluon.html.BEAUTIFY'>, 'BODY': <class 'gluon.html.BODY'>, 'BR': <class 'gluon.html.BR'>, 'BUTTON': <class 'gluon.html.BUTTON'>, 'CAT': <class 'gluon.html.CAT'>, 'CENTER': <class 'gluon.html.CENTER'>, 'CLEANUP': <class 'gluon.validators.CLEANUP'>, ...}, layer='/home/kaique/Projects/WebApps/web2py/applications/makebrand/controllers/client.py')"
p3234
sS'func'
p3235
S'restricted'
p3236
sa(dp3237
g3212
S'/home/kaique/Projects/WebApps/web2py/applications/makebrand/controllers/client.py'
p3238
sg3214
(dp3239
sg3220
I27
sg3221
(dp3240
I16
S'\telif form.errors:'
p3241
sI17
S"\t\tresponse.flash = T('Please, verify the errors.')"
p3242
sI18
S'\telse:'
p3243
sI19
S"\t\tresponse.flash = T('Fill, the fields. Avatar is optional!')"
p3244
sI20
S''
sI21
S"\treturn {'form': form}"
p3245
sI22
S''
sI23
S'@auth.requires_login()'
p3246
sI24
S'def profile():'
p3247
sI25
S'\tpass'
p3248
ssg3233
S'()'
p3249
sg3235
S'<module>'
p3250
sa(dp3251
g3212
S'/home/kaique/Projects/WebApps/web2py/gluon/globals.py'
p3252
sg3214
(dp3253
S'self'
p3254
S'undefined'
p3255
sS'f'
S'<function new>'
p3256
ssg3220
I172
sg3221
(dp3257
I167
S'        self.meta = Storage()      # used by web2py_ajax.html'
p3258
sI168
S'        self.menu = []             # used by the default view layout'
p3259
sI169
S'        self.files = []            # used by web2py_ajax.html'
p3260
sI170
S'        self.generic_patterns = [] # patterns to allow generic views'
p3261
sI171
S'        self._vars = None'
p3262
sI172
S'        self._caller = lambda f: f()'
p3263
sI173
S'        self._view_environment = None'
p3264
sI174
S'        self._custom_commit = None'
p3265
sI175
S'        self._custom_rollback = None'
p3266
sI176
S''
ssg3233
S'(f=<function new>)'
p3267
sg3235
S'<lambda>'
p3268
sa(dp3269
g3212
S'/home/kaique/Projects/WebApps/web2py/gluon/tools.py'
p3270
sg3214
(dp3271
S'action'
p3272
S'<function new>'
p3273
sS'a'
S'()'
p3274
sS'b'
g21
ssg3220
I2533
sg3221
(dp3275
I2528
S'                # otherwise case 3 would be ok.'
p3276
sI2529
S'                if not (callable(condition) and condition() == True) and not condition == True:'
p3277
sI2530
S'                    current.session.flash = self.messages.access_denied'
p3278
sI2531
S'                    return call_or_redirect('
p3279
sI2532
S'                        self.settings.on_failed_authorization)'
p3280
sI2533
S'                return action(*a, **b)'
p3281
sI2534
S'            f.__doc__ = action.__doc__'
p3282
sI2535
S'            f.__name__ = action.__name__'
p3283
sI2536
S'            f.__dict__.update(action.__dict__)'
p3284
sI2537
S'            return f'
p3285
ssg3233
S'(*a=(), **b={})'
p3286
sg3235
S'f'
sa(dp3287
g3212
S'/home/kaique/Projects/WebApps/web2py/applications/makebrand/controllers/client.py'
p3288
sg3214
(dp3289
S'global request'
p3290
S"<Storage {'body': <open file '<fdopen>', mode 'w...ient/create', 'name': 'My test', 'avatar': ''}>}>"
p3291
sS'global session'
p3292
S"<Storage {'last_query': 'db.client.id>0', '_user...login]': '6239568c-a8ef-4045-97fe-c9bc0aa60f2d'}>"
p3293
sS'form'
p3294
S'<gluon.sqlhtml.SQLFORM object>'
p3295
sS'form.accepts'
p3296
S'<bound method SQLFORM.accepts of <gluon.sqlhtml.SQLFORM object>>'
p3297
ssg3220
I13
sg3221
(dp3298
I8
S''
sI9
S'@auth.requires_login()'
p3299
sI10
S'def new():'
p3300
sI11
S"\tform = SQLFORM(db.client, fields=['name', 'description', 'avatar'])"
p3301
sI12
S''
sI13
S'\tif form.accepts(request, session):'
p3302
sI14
S'\t\tform.vars.visibility = True'
p3303
sI15
S"\t\tresponse.flash = T('New client was inserted!')"
p3304
sI16
S'\telif form.errors:'
p3305
sI17
S"\t\tresponse.flash = T('Please, verify the errors.')"
p3306
ssg3233
S'()'
p3307
sg3235
S'new'
p3308
sa(dp3309
g3212
S'/home/kaique/Projects/WebApps/web2py/gluon/sqlhtml.py'
p3310
sg3214
(dp3311
S'self.vars.id'
p3312
S'None'
p3313
sS'fields'
p3314
S"{'avatar': '', 'description': 'other test', 'name': 'My test'}"
p3315
sS'self'
p3316
S'<gluon.sqlhtml.SQLFORM object>'
p3317
sS'self.vars'
p3318
S"<Storage {'name': 'My test', 'avatar': '', 'description': 'other test'}>"
p3319
sS'self.table.insert'
p3320
S"<bound method Table.insert of <Table {'_db': <DA..., '_id': <gluon.dal.Field object at 0xaa8f56c>}>>"
p3321
sS'self.table'
p3322
S"<Table {'_db': <DAL {'auth_event': <Table {'orig...>, '_id': <gluon.dal.Field object at 0xaa8f56c>}>"
p3323
ssg3220
I1267
sg3221
(dp3324
I1262
S'                if record_id:'
p3325
sI1263
S'                    self.vars.id = self.record.id'
p3326
sI1264
S'                    if fields:'
p3327
sI1265
S'                        self.table._db(self.table._id == self.record.id).update(**fields)'
p3328
sI1266
S'                else:'
p3329
sI1267
S'                    self.vars.id = self.table.insert(**fields)'
p3330
sI1268
S'        self.accepted = ret'
p3331
sI1269
S'        return ret'
p3332
sI1270
S''
sI1271
S'    @staticmethod'
p3333
ssg3233
S"(self=<gluon.sqlhtml.SQLFORM object>, request_vars=<Storage {'_formkey': '293838d0-18e3-45dd-aee9-f...client/create', 'name': 'My test', 'avatar': ''}>, session=<Storage {'last_query': 'db.client.id>0', '_user...login]': '6239568c-a8ef-4045-97fe-c9bc0aa60f2d'}>, formname='client/create', keepvalues=False, onvalidation=None, dbio=True, hideerror=False, detect_record_change=False)"
p3334
sg3235
S'accepts'
p3335
sa(dp3336
g3212
S'/home/kaique/Projects/WebApps/web2py/gluon/dal.py'
p3337
sg3214
(dp3338
S'self._listify'
p3339
S"<bound method Table._listify of <Table {'_db': <..., '_id': <gluon.dal.Field object at 0xaa8f56c>}>>"
p3340
sS'fields'
p3341
S"{'avatar': '', 'description': 'other test', 'name': 'My test'}"
p3342
sS'self'
p3343
S"<Table {'_db': <DAL {'auth_event': <Table {'orig...>, '_id': <gluon.dal.Field object at 0xaa8f56c>}>"
p3344
sS'self._db._adapter'
p3345
S'<gluon.dal.SQLiteAdapter object>'
p3346
sS'self._db._adapter.insert'
p3347
S'<bound method SQLiteAdapter.insert of <gluon.dal.SQLiteAdapter object>>'
p3348
sS'self._db'
p3349
S"<DAL {'auth_event': <Table {'origin': <gluon.dal... '_id': <gluon.dal.Field object at 0xa3e57ac>}>}>"
p3350
ssg3220
I5597
sg3221
(dp3351
I5600
S'        response = Row()'
p3352
sI5601
S'        response.errors = Row()'
p3353
sI5592
S''
sI5593
S'    def _insert(self, **fields):'
p3354
sI5594
S'        return self._db._adapter._insert(self,self._listify(fields))'
p3355
sI5595
S''
sI5596
S'    def insert(self, **fields):'
p3356
sI5597
S'        return self._db._adapter.insert(self,self._listify(fields))'
p3357
sI5598
S''
sI5599
S'    def validate_and_insert(self,**fields):'
p3358
ssg3233
S"(self=<Table {'_db': <DAL {'auth_event': <Table {'orig...>, '_id': <gluon.dal.Field object at 0xaa8f56c>}>, **fields={'avatar': '', 'description': 'other test', 'name': 'My test'})"
p3359
sg3235
S'insert'
p3360
sa(dp3361
g3212
S'/home/kaique/Projects/WebApps/web2py/gluon/dal.py'
p3362
sg3214
(dp3363
S'ofield.name'
p3364
S"'visibility'"
p3365
sS'ofield'
p3366
S'<gluon.dal.Field object>'
p3367
sS'builtinSyntaxError'
p3368
S"<type 'exceptions.SyntaxError'>"
p3369
ssg3220
I5590
sg3221
(dp3370
I5585
S'                try:'
p3371
sI5586
S'                    new_fields.append((ofield,ofield.compute(Row(fields))))'
p3372
sI5587
S'                except KeyError:'
p3373
sI5588
S'                    pass'
p3374
sI5589
S'            if not update and ofield.required and not ofield.name in new_fields_names:'
p3375
sI5590
S"                raise SyntaxError,'Table: missing required field: %s' % ofield.name"
p3376
sI5591
S'        return new_fields'
p3377
sI5592
S''
sI5593
S'    def _insert(self, **fields):'
p3378
sI5594
S'        return self._db._adapter._insert(self,self._listify(fields))'
p3379
ssg3233
S"(self=<Table {'_db': <DAL {'auth_event': <Table {'orig...>, '_id': <gluon.dal.Field object at 0xaa8f56c>}>, fields={'avatar': '', 'description': 'other test', 'name': 'My test'}, update=False)"
p3380
sg3235
S'_listify'
p3381
sasS'pyver'
p3382
S'Python 2.7.2+: /usr/bin/python'
p3383
sS'session'
p3384
g69
(g70
g71
NtRp3385
(dp3386
g74
(dp3387
sg76
(lp3388
g69
(g78
g71
NtRp3389
(dp3390
g74
(dp3391
g82
I5
ssg83
Nsg76
(lp3392
g69
(g85
g71
NtRp3393
(dp3394
g74
(dp3395
sg83
g3389
sg76
(lp3396
g69
(g90
g71
NtRp3397
(dp3398
g74
(dp3399
g94
g95
ssg83
g3393
sg76
(lp3400
S'auth'
p3401
asbag69
(g90
g71
NtRp3402
(dp3403
g74
(dp3404
g101
g102
ssg83
g3393
sg76
(lp3405
S':'
asbag69
(g90
g71
NtRp3406
(dp3407
g74
(dp3408
sg83
g3393
sg76
(lp3409
g69
(g70
g71
NtRp3410
(dp3411
g74
(dp3412
g82
I5
ssg83
g3406
sg76
(lp3413
g69
(g78
g71
NtRp3414
(dp3415
g74
(dp3416
g82
I4
ssg83
Nsg76
(lp3417
g69
(g85
g71
NtRp3418
(dp3419
g74
(dp3420
sg83
g3414
sg76
(lp3421
g69
(g90
g71
NtRp3422
(dp3423
g74
(dp3424
g94
g95
ssg83
g3418
sg76
(lp3425
S'expiration'
p3426
asbag69
(g90
g71
NtRp3427
(dp3428
g74
(dp3429
g101
g102
ssg83
g3418
sg76
(lp3430
S':'
asbag69
(g90
g71
NtRp3431
(dp3432
g74
(dp3433
sg83
g3418
sg76
(lp3434
g69
(g70
g71
NtRp3435
(dp3436
g74
(dp3437
g82
I4
ssg83
g3431
sg76
(lp3438
S'2592000'
p3439
asbasbasbag69
(g85
g71
NtRp3440
(dp3441
g74
(dp3442
sg83
g3414
sg76
(lp3443
g69
(g90
g71
NtRp3444
(dp3445
g74
(dp3446
g94
g95
ssg83
g3440
sg76
(lp3447
S'hmac_key'
p3448
asbag69
(g90
g71
NtRp3449
(dp3450
g74
(dp3451
g101
g102
ssg83
g3440
sg76
(lp3452
S':'
asbag69
(g90
g71
NtRp3453
(dp3454
g74
(dp3455
sg83
g3440
sg76
(lp3456
g69
(g70
g71
NtRp3457
(dp3458
g74
(dp3459
g82
I4
ssg83
g3453
sg76
(lp3460
S'2dd6a47e-ce62-4fa9-bd77-42d6eb4a58cd'
p3461
asbasbasbag69
(g85
g71
NtRp3462
(dp3463
g74
(dp3464
sg83
g3414
sg76
(lp3465
g69
(g90
g71
NtRp3466
(dp3467
g74
(dp3468
g94
g95
ssg83
g3462
sg76
(lp3469
S'last_visit'
p3470
asbag69
(g90
g71
NtRp3471
(dp3472
g74
(dp3473
g101
g102
ssg83
g3462
sg76
(lp3474
S':'
asbag69
(g90
g71
NtRp3475
(dp3476
g74
(dp3477
sg83
g3462
sg76
(lp3478
g69
(g70
g71
NtRp3479
(dp3480
g74
(dp3481
g82
I4
ssg83
g3475
sg76
(lp3482
S'datetime.datetime(2012, 2, 1, 9, 20, 33, 228066)'
p3483
asbasbasbag69
(g85
g71
NtRp3484
(dp3485
g74
(dp3486
sg83
g3414
sg76
(lp3487
g69
(g90
g71
NtRp3488
(dp3489
g74
(dp3490
g94
g95
ssg83
g3484
sg76
(lp3491
S'remember'
p3492
asbag69
(g90
g71
NtRp3493
(dp3494
g74
(dp3495
g101
g102
ssg83
g3484
sg76
(lp3496
S':'
asbag69
(g90
g71
NtRp3497
(dp3498
g74
(dp3499
sg83
g3484
sg76
(lp3500
g69
(g70
g71
NtRp3501
(dp3502
g74
(dp3503
g82
I4
ssg83
g3497
sg76
(lp3504
g112
asbasbasbag69
(g85
g71
NtRp3505
(dp3506
g74
(dp3507
sg83
g3414
sg76
(lp3508
g69
(g90
g71
NtRp3509
(dp3510
g74
(dp3511
g94
g95
ssg83
g3505
sg76
(lp3512
S'user'
p3513
asbag69
(g90
g71
NtRp3514
(dp3515
g74
(dp3516
g101
g102
ssg83
g3505
sg76
(lp3517
S':'
asbag69
(g90
g71
NtRp3518
(dp3519
g74
(dp3520
sg83
g3505
sg76
(lp3521
g69
(g70
g71
NtRp3522
(dp3523
g74
(dp3524
g82
I4
ssg83
g3518
sg76
(lp3525
g69
(g78
g71
NtRp3526
(dp3527
g74
(dp3528
g82
I3
ssg83
Nsg76
(lp3529
g69
(g85
g71
NtRp3530
(dp3531
g74
(dp3532
sg83
g3526
sg76
(lp3533
g69
(g90
g71
NtRp3534
(dp3535
g74
(dp3536
g94
g95
ssg83
g3530
sg76
(lp3537
S'email'
p3538
asbag69
(g90
g71
NtRp3539
(dp3540
g74
(dp3541
g101
g102
ssg83
g3530
sg76
(lp3542
S':'
asbag69
(g90
g71
NtRp3543
(dp3544
g74
(dp3545
sg83
g3530
sg76
(lp3546
g69
(g70
g71
NtRp3547
(dp3548
g74
(dp3549
g82
I3
ssg83
g3543
sg76
(lp3550
S'kaique.developer@gmail.com'
p3551
asbasbasbag69
(g85
g71
NtRp3552
(dp3553
g74
(dp3554
sg83
g3526
sg76
(lp3555
g69
(g90
g71
NtRp3556
(dp3557
g74
(dp3558
g94
g95
ssg83
g3552
sg76
(lp3559
S'first_name'
p3560
asbag69
(g90
g71
NtRp3561
(dp3562
g74
(dp3563
g101
g102
ssg83
g3552
sg76
(lp3564
S':'
asbag69
(g90
g71
NtRp3565
(dp3566
g74
(dp3567
sg83
g3552
sg76
(lp3568
g69
(g70
g71
NtRp3569
(dp3570
g74
(dp3571
g82
I3
ssg83
g3565
sg76
(lp3572
S'kaique'
p3573
asbasbasbag69
(g85
g71
NtRp3574
(dp3575
g74
(dp3576
sg83
g3526
sg76
(lp3577
g69
(g90
g71
NtRp3578
(dp3579
g74
(dp3580
g94
g95
ssg83
g3574
sg76
(lp3581
S'id'
p3582
asbag69
(g90
g71
NtRp3583
(dp3584
g74
(dp3585
g101
g102
ssg83
g3574
sg76
(lp3586
S':'
asbag69
(g90
g71
NtRp3587
(dp3588
g74
(dp3589
sg83
g3574
sg76
(lp3590
g69
(g70
g71
NtRp3591
(dp3592
g74
(dp3593
g82
I3
ssg83
g3587
sg76
(lp3594
S'1'
asbasbasbag69
(g85
g71
NtRp3595
(dp3596
g74
(dp3597
sg83
g3526
sg76
(lp3598
g69
(g90
g71
NtRp3599
(dp3600
g74
(dp3601
g94
g95
ssg83
g3595
sg76
(lp3602
S'last_name'
p3603
asbag69
(g90
g71
NtRp3604
(dp3605
g74
(dp3606
g101
g102
ssg83
g3595
sg76
(lp3607
S':'
asbag69
(g90
g71
NtRp3608
(dp3609
g74
(dp3610
sg83
g3595
sg76
(lp3611
g69
(g70
g71
NtRp3612
(dp3613
g74
(dp3614
g82
I3
ssg83
g3608
sg76
(lp3615
S'silva'
p3616
asbasbasbag69
(g85
g71
NtRp3617
(dp3618
g74
(dp3619
sg83
g3526
sg76
(lp3620
g69
(g90
g71
NtRp3621
(dp3622
g74
(dp3623
g94
g95
ssg83
g3617
sg76
(lp3624
S'password'
p3625
asbag69
(g90
g71
NtRp3626
(dp3627
g74
(dp3628
g101
g102
ssg83
g3617
sg76
(lp3629
S':'
asbag69
(g90
g71
NtRp3630
(dp3631
g74
(dp3632
sg83
g3617
sg76
(lp3633
g69
(g70
g71
NtRp3634
(dp3635
g74
(dp3636
g82
I3
ssg83
g3630
sg76
(lp3637
S'72c6a018d62d3fb47d95389e4a062cd2'
p3638
asbasbasbag69
(g85
g71
NtRp3639
(dp3640
g74
(dp3641
sg83
g3526
sg76
(lp3642
g69
(g90
g71
NtRp3643
(dp3644
g74
(dp3645
g94
g95
ssg83
g3639
sg76
(lp3646
S'registration_id'
p3647
asbag69
(g90
g71
NtRp3648
(dp3649
g74
(dp3650
g101
g102
ssg83
g3639
sg76
(lp3651
S':'
asbag69
(g90
g71
NtRp3652
(dp3653
g74
(dp3654
sg83
g3639
sg76
(lp3655
g69
(g70
g71
NtRp3656
(dp3657
g74
(dp3658
g82
I3
ssg83
g3652
sg76
(lp3659
S''
asbasbasbag69
(g85
g71
NtRp3660
(dp3661
g74
(dp3662
sg83
g3526
sg76
(lp3663
g69
(g90
g71
NtRp3664
(dp3665
g74
(dp3666
g94
g95
ssg83
g3660
sg76
(lp3667
S'registration_key'
p3668
asbag69
(g90
g71
NtRp3669
(dp3670
g74
(dp3671
g101
g102
ssg83
g3660
sg76
(lp3672
S':'
asbag69
(g90
g71
NtRp3673
(dp3674
g74
(dp3675
sg83
g3660
sg76
(lp3676
g69
(g70
g71
NtRp3677
(dp3678
g74
(dp3679
g82
I3
ssg83
g3673
sg76
(lp3680
S''
asbasbasbag69
(g85
g71
NtRp3681
(dp3682
g74
(dp3683
sg83
g3526
sg76
(lp3684
g69
(g90
g71
NtRp3685
(dp3686
g74
(dp3687
g94
g95
ssg83
g3681
sg76
(lp3688
S'reset_password_key'
p3689
asbag69
(g90
g71
NtRp3690
(dp3691
g74
(dp3692
g101
g102
ssg83
g3681
sg76
(lp3693
S':'
asbag69
(g90
g71
NtRp3694
(dp3695
g74
(dp3696
sg83
g3681
sg76
(lp3697
g69
(g70
g71
NtRp3698
(dp3699
g74
(dp3700
g82
I3
ssg83
g3694
sg76
(lp3701
S''
asbasbasbasbasbasbasbasbasbasbasbag69
(g85
g71
NtRp3702
(dp3703
g74
(dp3704
sg83
g3389
sg76
(lp3705
g69
(g90
g71
NtRp3706
(dp3707
g74
(dp3708
g94
g95
ssg83
g3702
sg76
(lp3709
S'last_query'
p3710
asbag69
(g90
g71
NtRp3711
(dp3712
g74
(dp3713
g101
g102
ssg83
g3702
sg76
(lp3714
S':'
asbag69
(g90
g71
NtRp3715
(dp3716
g74
(dp3717
sg83
g3702
sg76
(lp3718
g69
(g70
g71
NtRp3719
(dp3720
g74
(dp3721
g82
I5
ssg83
g3715
sg76
(lp3722
S'db.client.id>0'
p3723
asbasbasbasbasbsS'etype'
p3724
S"<type 'exceptions.SyntaxError'>"
p3725
sS'date'
p3726
S'Wed Feb  1 12:04:08 2012'
p3727
sS'response'
p3728
g69
(g70
g71
NtRp3729
(dp3730
g74
(dp3731
sg76
(lp3732
g69
(g78
g71
NtRp3733
(dp3734
g74
(dp3735
g82
I5
ssg83
Nsg76
(lp3736
g69
(g85
g71
NtRp3737
(dp3738
g74
(dp3739
sg83
g3733
sg76
(lp3740
g69
(g90
g71
NtRp3741
(dp3742
g74
(dp3743
g94
g95
ssg83
g3737
sg76
(lp3744
g167
asbag69
(g90
g71
NtRp3745
(dp3746
g74
(dp3747
g101
g102
ssg83
g3737
sg76
(lp3748
S':'
asbag69
(g90
g71
NtRp3749
(dp3750
g74
(dp3751
sg83
g3737
sg76
(lp3752
g69
(g70
g71
NtRp3753
(dp3754
g74
(dp3755
g82
I5
ssg83
g3749
sg76
(lp3756
S'<cStringIO.StringO object at 0xa87ece0>'
p3757
asbasbasbag69
(g85
g71
NtRp3758
(dp3759
g74
(dp3760
sg83
g3733
sg76
(lp3761
g69
(g90
g71
NtRp3762
(dp3763
g74
(dp3764
g94
g95
ssg83
g3758
sg76
(lp3765
g233
asbag69
(g90
g71
NtRp3766
(dp3767
g74
(dp3768
g101
g102
ssg83
g3758
sg76
(lp3769
S':'
asbag69
(g90
g71
NtRp3770
(dp3771
g74
(dp3772
sg83
g3758
sg76
(lp3773
g69
(g70
g71
NtRp3774
(dp3775
g74
(dp3776
g82
I5
ssg83
g3770
sg76
(lp3777
g69
(g78
g71
NtRp3778
(dp3779
g74
(dp3780
g82
I4
ssg83
Nsg76
(lp3781
g69
(g85
g71
NtRp3782
(dp3783
g74
(dp3784
sg83
g3778
sg76
(lp3785
g69
(g90
g71
NtRp3786
(dp3787
g74
(dp3788
g94
g95
ssg83
g3782
sg76
(lp3789
S'session_id_makebrand'
p3790
asbag69
(g90
g71
NtRp3791
(dp3792
g74
(dp3793
g101
g102
ssg83
g3782
sg76
(lp3794
S':'
asbag69
(g90
g71
NtRp3795
(dp3796
g74
(dp3797
sg83
g3782
sg76
(lp3798
g69
(g70
g71
NtRp3799
(dp3800
g74
(dp3801
g82
I4
ssg83
g3795
sg76
(lp3802
g69
(g78
g71
NtRp3803
(dp3804
g74
(dp3805
g82
I3
ssg83
Nsg76
(lp3806
g69
(g85
g71
NtRp3807
(dp3808
g74
(dp3809
sg83
g3803
sg76
(lp3810
g69
(g90
g71
NtRp3811
(dp3812
g74
(dp3813
g94
g95
ssg83
g3807
sg76
(lp3814
g283
asbag69
(g90
g71
NtRp3815
(dp3816
g74
(dp3817
g101
g102
ssg83
g3807
sg76
(lp3818
S':'
asbag69
(g90
g71
NtRp3819
(dp3820
g74
(dp3821
sg83
g3807
sg76
(lp3822
g69
(g70
g71
NtRp3823
(dp3824
g74
(dp3825
g82
I3
ssg83
g3819
sg76
(lp3826
S''
asbasbasbag69
(g85
g71
NtRp3827
(dp3828
g74
(dp3829
sg83
g3803
sg76
(lp3830
g69
(g90
g71
NtRp3831
(dp3832
g74
(dp3833
g94
g95
ssg83
g3827
sg76
(lp3834
g304
asbag69
(g90
g71
NtRp3835
(dp3836
g74
(dp3837
g101
g102
ssg83
g3827
sg76
(lp3838
S':'
asbag69
(g90
g71
NtRp3839
(dp3840
g74
(dp3841
sg83
g3827
sg76
(lp3842
g69
(g70
g71
NtRp3843
(dp3844
g74
(dp3845
g82
I3
ssg83
g3839
sg76
(lp3846
S''
asbasbasbag69
(g85
g71
NtRp3847
(dp3848
g74
(dp3849
sg83
g3803
sg76
(lp3850
g69
(g90
g71
NtRp3851
(dp3852
g74
(dp3853
g94
g95
ssg83
g3847
sg76
(lp3854
g325
asbag69
(g90
g71
NtRp3855
(dp3856
g74
(dp3857
g101
g102
ssg83
g3847
sg76
(lp3858
S':'
asbag69
(g90
g71
NtRp3859
(dp3860
g74
(dp3861
sg83
g3847
sg76
(lp3862
g69
(g70
g71
NtRp3863
(dp3864
g74
(dp3865
g82
I3
ssg83
g3859
sg76
(lp3866
S''
asbasbasbag69
(g85
g71
NtRp3867
(dp3868
g74
(dp3869
sg83
g3803
sg76
(lp3870
g69
(g90
g71
NtRp3871
(dp3872
g74
(dp3873
g94
g95
ssg83
g3867
sg76
(lp3874
g346
asbag69
(g90
g71
NtRp3875
(dp3876
g74
(dp3877
g101
g102
ssg83
g3867
sg76
(lp3878
S':'
asbag69
(g90
g71
NtRp3879
(dp3880
g74
(dp3881
sg83
g3867
sg76
(lp3882
g69
(g70
g71
NtRp3883
(dp3884
g74
(dp3885
g82
I3
ssg83
g3879
sg76
(lp3886
S''
asbasbasbag69
(g85
g71
NtRp3887
(dp3888
g74
(dp3889
sg83
g3803
sg76
(lp3890
g69
(g90
g71
NtRp3891
(dp3892
g74
(dp3893
g94
g95
ssg83
g3887
sg76
(lp3894
g367
asbag69
(g90
g71
NtRp3895
(dp3896
g74
(dp3897
g101
g102
ssg83
g3887
sg76
(lp3898
S':'
asbag69
(g90
g71
NtRp3899
(dp3900
g74
(dp3901
sg83
g3887
sg76
(lp3902
g69
(g70
g71
NtRp3903
(dp3904
g74
(dp3905
g82
I3
ssg83
g3899
sg76
(lp3906
S''
asbasbasbag69
(g85
g71
NtRp3907
(dp3908
g74
(dp3909
sg83
g3803
sg76
(lp3910
g69
(g90
g71
NtRp3911
(dp3912
g74
(dp3913
g94
g95
ssg83
g3907
sg76
(lp3914
g388
asbag69
(g90
g71
NtRp3915
(dp3916
g74
(dp3917
g101
g102
ssg83
g3907
sg76
(lp3918
S':'
asbag69
(g90
g71
NtRp3919
(dp3920
g74
(dp3921
sg83
g3907
sg76
(lp3922
g69
(g70
g71
NtRp3923
(dp3924
g74
(dp3925
g82
I3
ssg83
g3919
sg76
(lp3926
S'/'
asbasbasbag69
(g85
g71
NtRp3927
(dp3928
g74
(dp3929
sg83
g3803
sg76
(lp3930
g69
(g90
g71
NtRp3931
(dp3932
g74
(dp3933
g94
g95
ssg83
g3927
sg76
(lp3934
g409
asbag69
(g90
g71
NtRp3935
(dp3936
g74
(dp3937
g101
g102
ssg83
g3927
sg76
(lp3938
S':'
asbag69
(g90
g71
NtRp3939
(dp3940
g74
(dp3941
sg83
g3927
sg76
(lp3942
g69
(g70
g71
NtRp3943
(dp3944
g74
(dp3945
g82
I3
ssg83
g3939
sg76
(lp3946
S''
asbasbasbag69
(g85
g71
NtRp3947
(dp3948
g74
(dp3949
sg83
g3803
sg76
(lp3950
g69
(g90
g71
NtRp3951
(dp3952
g74
(dp3953
g94
g95
ssg83
g3947
sg76
(lp3954
g430
asbag69
(g90
g71
NtRp3955
(dp3956
g74
(dp3957
g101
g102
ssg83
g3947
sg76
(lp3958
S':'
asbag69
(g90
g71
NtRp3959
(dp3960
g74
(dp3961
sg83
g3947
sg76
(lp3962
g69
(g70
g71
NtRp3963
(dp3964
g74
(dp3965
g82
I3
ssg83
g3959
sg76
(lp3966
S''
asbasbasbasbasbasbasbasbasbasbasbag69
(g85
g71
NtRp3967
(dp3968
g74
(dp3969
sg83
g3733
sg76
(lp3970
g69
(g90
g71
NtRp3971
(dp3972
g74
(dp3973
g94
g95
ssg83
g3967
sg76
(lp3974
S'files'
p3975
asbag69
(g90
g71
NtRp3976
(dp3977
g74
(dp3978
g101
g102
ssg83
g3967
sg76
(lp3979
S':'
asbag69
(g90
g71
NtRp3980
(dp3981
g74
(dp3982
sg83
g3967
sg76
(lp3983
g69
(g70
g71
NtRp3984
(dp3985
g74
(dp3986
g82
I5
ssg83
g3980
sg76
(lp3987
g69
(g78
g71
NtRp3988
(dp3989
g74
(dp3990
g82
I4
ssg83
Nsg76
(lp3991
sbasbasbasbag69
(g85
g71
NtRp3992
(dp3993
g74
(dp3994
sg83
g3733
sg76
(lp3995
g69
(g90
g71
NtRp3996
(dp3997
g74
(dp3998
g94
g95
ssg83
g3992
sg76
(lp3999
S'flash'
p4000
asbag69
(g90
g71
NtRp4001
(dp4002
g74
(dp4003
g101
g102
ssg83
g3992
sg76
(lp4004
S':'
asbag69
(g90
g71
NtRp4005
(dp4006
g74
(dp4007
sg83
g3992
sg76
(lp4008
g69
(g70
g71
NtRp4009
(dp4010
g74
(dp4011
g82
I5
ssg83
g4005
sg76
(lp4012
S''
asbasbasbag69
(g85
g71
NtRp4013
(dp4014
g74
(dp4015
sg83
g3733
sg76
(lp4016
g69
(g90
g71
NtRp4017
(dp4018
g74
(dp4019
g94
g95
ssg83
g4013
sg76
(lp4020
S'generic_patterns'
p4021
asbag69
(g90
g71
NtRp4022
(dp4023
g74
(dp4024
g101
g102
ssg83
g4013
sg76
(lp4025
S':'
asbag69
(g90
g71
NtRp4026
(dp4027
g74
(dp4028
sg83
g4013
sg76
(lp4029
g69
(g70
g71
NtRp4030
(dp4031
g74
(dp4032
g82
I5
ssg83
g4026
sg76
(lp4033
g69
(g78
g71
NtRp4034
(dp4035
g74
(dp4036
g82
I4
ssg83
Nsg76
(lp4037
g69
(g85
g71
NtRp4038
(dp4039
g74
(dp4040
sg83
g4034
sg76
(lp4041
g69
(g90
g71
NtRp4042
(dp4043
g74
(dp4044
sg83
g4038
sg76
(lp4045
g69
(g70
g71
NtRp4046
(dp4047
g74
(dp4048
g82
I4
ssg83
g4042
sg76
(lp4049
S'*'
asbasbasbasbasbasbasbag69
(g85
g71
NtRp4050
(dp4051
g74
(dp4052
sg83
g3733
sg76
(lp4053
g69
(g90
g71
NtRp4054
(dp4055
g74
(dp4056
g94
g95
ssg83
g4050
sg76
(lp4057
S'headers'
p4058
asbag69
(g90
g71
NtRp4059
(dp4060
g74
(dp4061
g101
g102
ssg83
g4050
sg76
(lp4062
S':'
asbag69
(g90
g71
NtRp4063
(dp4064
g74
(dp4065
sg83
g4050
sg76
(lp4066
g69
(g70
g71
NtRp4067
(dp4068
g74
(dp4069
g82
I5
ssg83
g4063
sg76
(lp4070
g69
(g78
g71
NtRp4071
(dp4072
g74
(dp4073
g82
I4
ssg83
Nsg76
(lp4074
g69
(g85
g71
NtRp4075
(dp4076
g74
(dp4077
sg83
g4071
sg76
(lp4078
g69
(g90
g71
NtRp4079
(dp4080
g74
(dp4081
g94
g95
ssg83
g4075
sg76
(lp4082
S'Cache-Control'
p4083
asbag69
(g90
g71
NtRp4084
(dp4085
g74
(dp4086
g101
g102
ssg83
g4075
sg76
(lp4087
S':'
asbag69
(g90
g71
NtRp4088
(dp4089
g74
(dp4090
sg83
g4075
sg76
(lp4091
g69
(g70
g71
NtRp4092
(dp4093
g74
(dp4094
g82
I4
ssg83
g4088
sg76
(lp4095
S'no-store, no-cache, must-revalidate, post-check=0, pre-check=0'
p4096
asbasbasbag69
(g85
g71
NtRp4097
(dp4098
g74
(dp4099
sg83
g4071
sg76
(lp4100
g69
(g90
g71
NtRp4101
(dp4102
g74
(dp4103
g94
g95
ssg83
g4097
sg76
(lp4104
S'Content-Type'
p4105
asbag69
(g90
g71
NtRp4106
(dp4107
g74
(dp4108
g101
g102
ssg83
g4097
sg76
(lp4109
S':'
asbag69
(g90
g71
NtRp4110
(dp4111
g74
(dp4112
sg83
g4097
sg76
(lp4113
g69
(g70
g71
NtRp4114
(dp4115
g74
(dp4116
g82
I4
ssg83
g4110
sg76
(lp4117
S'text/html; charset=utf-8'
p4118
asbasbasbag69
(g85
g71
NtRp4119
(dp4120
g74
(dp4121
sg83
g4071
sg76
(lp4122
g69
(g90
g71
NtRp4123
(dp4124
g74
(dp4125
g94
g95
ssg83
g4119
sg76
(lp4126
S'Expires'
p4127
asbag69
(g90
g71
NtRp4128
(dp4129
g74
(dp4130
g101
g102
ssg83
g4119
sg76
(lp4131
S':'
asbag69
(g90
g71
NtRp4132
(dp4133
g74
(dp4134
sg83
g4119
sg76
(lp4135
g69
(g70
g71
NtRp4136
(dp4137
g74
(dp4138
g82
I4
ssg83
g4132
sg76
(lp4139
S'Wed, 01 Feb 2012 14:04:08 GMT'
p4140
asbasbasbag69
(g85
g71
NtRp4141
(dp4142
g74
(dp4143
sg83
g4071
sg76
(lp4144
g69
(g90
g71
NtRp4145
(dp4146
g74
(dp4147
g94
g95
ssg83
g4141
sg76
(lp4148
S'Pragma'
p4149
asbag69
(g90
g71
NtRp4150
(dp4151
g74
(dp4152
g101
g102
ssg83
g4141
sg76
(lp4153
S':'
asbag69
(g90
g71
NtRp4154
(dp4155
g74
(dp4156
sg83
g4141
sg76
(lp4157
g69
(g70
g71
NtRp4158
(dp4159
g74
(dp4160
g82
I4
ssg83
g4154
sg76
(lp4161
S'no-cache'
p4162
asbasbasbag69
(g85
g71
NtRp4163
(dp4164
g74
(dp4165
sg83
g4071
sg76
(lp4166
g69
(g90
g71
NtRp4167
(dp4168
g74
(dp4169
g94
g95
ssg83
g4163
sg76
(lp4170
S'X-Powered-By'
p4171
asbag69
(g90
g71
NtRp4172
(dp4173
g74
(dp4174
g101
g102
ssg83
g4163
sg76
(lp4175
S':'
asbag69
(g90
g71
NtRp4176
(dp4177
g74
(dp4178
sg83
g4163
sg76
(lp4179
g69
(g70
g71
NtRp4180
(dp4181
g74
(dp4182
g82
I4
ssg83
g4176
sg76
(lp4183
S'web2py'
p4184
asbasbasbasbasbasbasbag69
(g85
g71
NtRp4185
(dp4186
g74
(dp4187
sg83
g3733
sg76
(lp4188
g69
(g90
g71
NtRp4189
(dp4190
g74
(dp4191
g94
g95
ssg83
g4185
sg76
(lp4192
S'menu'
p4193
asbag69
(g90
g71
NtRp4194
(dp4195
g74
(dp4196
g101
g102
ssg83
g4185
sg76
(lp4197
S':'
asbag69
(g90
g71
NtRp4198
(dp4199
g74
(dp4200
sg83
g4185
sg76
(lp4201
g69
(g70
g71
NtRp4202
(dp4203
g74
(dp4204
g82
I5
ssg83
g4198
sg76
(lp4205
g69
(g78
g71
NtRp4206
(dp4207
g74
(dp4208
g82
I4
ssg83
Nsg76
(lp4209
g69
(g85
g71
NtRp4210
(dp4211
g74
(dp4212
sg83
g4206
sg76
(lp4213
g69
(g90
g71
NtRp4214
(dp4215
g74
(dp4216
sg83
g4210
sg76
(lp4217
g69
(g70
g71
NtRp4218
(dp4219
g74
(dp4220
g82
I4
ssg83
g4214
sg76
(lp4221
g69
(g78
g71
NtRp4222
(dp4223
g74
(dp4224
g82
I3
ssg83
Nsg76
(lp4225
g69
(g85
g71
NtRp4226
(dp4227
g74
(dp4228
sg83
g4222
sg76
(lp4229
g69
(g90
g71
NtRp4230
(dp4231
g74
(dp4232
sg83
g4226
sg76
(lp4233
g69
(g70
g71
NtRp4234
(dp4235
g74
(dp4236
g82
I3
ssg83
g4230
sg76
(lp4237
cgluon.languages
lazyT_unpickle
p4238
(S't\x04\x00\x00\x00Home'
tRp4239
asbasbasbag69
(g85
g71
NtRp4240
(dp4241
g74
(dp4242
sg83
g4222
sg76
(lp4243
g69
(g90
g71
NtRp4244
(dp4245
g74
(dp4246
sg83
g4240
sg76
(lp4247
g69
(g70
g71
NtRp4248
(dp4249
g74
(dp4250
g82
I3
ssg83
g4244
sg76
(lp4251
g112
asbasbasbag69
(g85
g71
NtRp4252
(dp4253
g74
(dp4254
sg83
g4222
sg76
(lp4255
g69
(g90
g71
NtRp4256
(dp4257
g74
(dp4258
sg83
g4252
sg76
(lp4259
g69
(g70
g71
NtRp4260
(dp4261
g74
(dp4262
g82
I3
ssg83
g4256
sg76
(lp4263
S'/makebrand/default/index'
p4264
asbasbasbag69
(g85
g71
NtRp4265
(dp4266
g74
(dp4267
sg83
g4222
sg76
(lp4268
g69
(g90
g71
NtRp4269
(dp4270
g74
(dp4271
sg83
g4265
sg76
(lp4272
g69
(g70
g71
NtRp4273
(dp4274
g74
(dp4275
g82
I3
ssg83
g4269
sg76
(lp4276
g69
(g78
g71
NtRp4277
(dp4278
g74
(dp4279
g82
I2
ssg83
Nsg76
(lp4280
sbasbasbasbasbasbasbasbasbasbasbasbag69
(g85
g71
NtRp4281
(dp4282
g74
(dp4283
sg83
g3733
sg76
(lp4284
g69
(g90
g71
NtRp4285
(dp4286
g74
(dp4287
g94
g95
ssg83
g4281
sg76
(lp4288
S'meta'
p4289
asbag69
(g90
g71
NtRp4290
(dp4291
g74
(dp4292
g101
g102
ssg83
g4281
sg76
(lp4293
S':'
asbag69
(g90
g71
NtRp4294
(dp4295
g74
(dp4296
sg83
g4281
sg76
(lp4297
g69
(g70
g71
NtRp4298
(dp4299
g74
(dp4300
g82
I5
ssg83
g4294
sg76
(lp4301
g69
(g78
g71
NtRp4302
(dp4303
g74
(dp4304
g82
I4
ssg83
Nsg76
(lp4305
g69
(g85
g71
NtRp4306
(dp4307
g74
(dp4308
sg83
g4302
sg76
(lp4309
g69
(g90
g71
NtRp4310
(dp4311
g74
(dp4312
g94
g95
ssg83
g4306
sg76
(lp4313
S'author'
p4314
asbag69
(g90
g71
NtRp4315
(dp4316
g74
(dp4317
g101
g102
ssg83
g4306
sg76
(lp4318
S':'
asbag69
(g90
g71
NtRp4319
(dp4320
g74
(dp4321
sg83
g4306
sg76
(lp4322
g69
(g70
g71
NtRp4323
(dp4324
g74
(dp4325
g82
I4
ssg83
g4319
sg76
(lp4326
S'Your Name <you@example.com>'
p4327
asbasbasbag69
(g85
g71
NtRp4328
(dp4329
g74
(dp4330
sg83
g4302
sg76
(lp4331
g69
(g90
g71
NtRp4332
(dp4333
g74
(dp4334
g94
g95
ssg83
g4328
sg76
(lp4335
S'copyright'
p4336
asbag69
(g90
g71
NtRp4337
(dp4338
g74
(dp4339
g101
g102
ssg83
g4328
sg76
(lp4340
S':'
asbag69
(g90
g71
NtRp4341
(dp4342
g74
(dp4343
sg83
g4328
sg76
(lp4344
g69
(g70
g71
NtRp4345
(dp4346
g74
(dp4347
g82
I4
ssg83
g4341
sg76
(lp4348
S'Copyright 2011'
p4349
asbasbasbag69
(g85
g71
NtRp4350
(dp4351
g74
(dp4352
sg83
g4302
sg76
(lp4353
g69
(g90
g71
NtRp4354
(dp4355
g74
(dp4356
g94
g95
ssg83
g4350
sg76
(lp4357
S'description'
p4358
asbag69
(g90
g71
NtRp4359
(dp4360
g74
(dp4361
g101
g102
ssg83
g4350
sg76
(lp4362
S':'
asbag69
(g90
g71
NtRp4363
(dp4364
g74
(dp4365
sg83
g4350
sg76
(lp4366
g69
(g70
g71
NtRp4367
(dp4368
g74
(dp4369
g82
I4
ssg83
g4363
sg76
(lp4370
S'a cool new app'
p4371
asbasbasbag69
(g85
g71
NtRp4372
(dp4373
g74
(dp4374
sg83
g4302
sg76
(lp4375
g69
(g90
g71
NtRp4376
(dp4377
g74
(dp4378
g94
g95
ssg83
g4372
sg76
(lp4379
S'generator'
p4380
asbag69
(g90
g71
NtRp4381
(dp4382
g74
(dp4383
g101
g102
ssg83
g4372
sg76
(lp4384
S':'
asbag69
(g90
g71
NtRp4385
(dp4386
g74
(dp4387
sg83
g4372
sg76
(lp4388
g69
(g70
g71
NtRp4389
(dp4390
g74
(dp4391
g82
I4
ssg83
g4385
sg76
(lp4392
S'Web2py Web Framework'
p4393
asbasbasbag69
(g85
g71
NtRp4394
(dp4395
g74
(dp4396
sg83
g4302
sg76
(lp4397
g69
(g90
g71
NtRp4398
(dp4399
g74
(dp4400
g94
g95
ssg83
g4394
sg76
(lp4401
S'keywords'
p4402
asbag69
(g90
g71
NtRp4403
(dp4404
g74
(dp4405
g101
g102
ssg83
g4394
sg76
(lp4406
S':'
asbag69
(g90
g71
NtRp4407
(dp4408
g74
(dp4409
sg83
g4394
sg76
(lp4410
g69
(g70
g71
NtRp4411
(dp4412
g74
(dp4413
g82
I4
ssg83
g4407
sg76
(lp4414
S'web2py, python, framework'
p4415
asbasbasbasbasbasbasbag69
(g85
g71
NtRp4416
(dp4417
g74
(dp4418
sg83
g3733
sg76
(lp4419
g69
(g90
g71
NtRp4420
(dp4421
g74
(dp4422
g94
g95
ssg83
g4416
sg76
(lp4423
S'postprocessing'
p4424
asbag69
(g90
g71
NtRp4425
(dp4426
g74
(dp4427
g101
g102
ssg83
g4416
sg76
(lp4428
S':'
asbag69
(g90
g71
NtRp4429
(dp4430
g74
(dp4431
sg83
g4416
sg76
(lp4432
g69
(g70
g71
NtRp4433
(dp4434
g74
(dp4435
g82
I5
ssg83
g4429
sg76
(lp4436
g69
(g78
g71
NtRp4437
(dp4438
g74
(dp4439
g82
I4
ssg83
Nsg76
(lp4440
sbasbasbasbag69
(g85
g71
NtRp4441
(dp4442
g74
(dp4443
sg83
g3733
sg76
(lp4444
g69
(g90
g71
NtRp4445
(dp4446
g74
(dp4447
g94
g95
ssg83
g4441
sg76
(lp4448
S'session_file'
p4449
asbag69
(g90
g71
NtRp4450
(dp4451
g74
(dp4452
g101
g102
ssg83
g4441
sg76
(lp4453
S':'
asbag69
(g90
g71
NtRp4454
(dp4455
g74
(dp4456
sg83
g4441
sg76
(lp4457
g69
(g70
g71
NtRp4458
(dp4459
g74
(dp4460
g82
I5
ssg83
g4454
sg76
(lp4461
S"<open file '/home/kaique/Projects/WebApps/web2py/applications/makebrand/sessions/127.0.0.1-a55916a1-4839-4cd2-96c9-1f7b201ae4ed', mode 'rb+' at 0xa572288>"
p4462
asbasbasbag69
(g85
g71
NtRp4463
(dp4464
g74
(dp4465
sg83
g3733
sg76
(lp4466
g69
(g90
g71
NtRp4467
(dp4468
g74
(dp4469
g94
g95
ssg83
g4463
sg76
(lp4470
S'session_filename'
p4471
asbag69
(g90
g71
NtRp4472
(dp4473
g74
(dp4474
g101
g102
ssg83
g4463
sg76
(lp4475
S':'
asbag69
(g90
g71
NtRp4476
(dp4477
g74
(dp4478
sg83
g4463
sg76
(lp4479
g69
(g70
g71
NtRp4480
(dp4481
g74
(dp4482
g82
I5
ssg83
g4476
sg76
(lp4483
S'/home/kaique/Projects/WebApps/web2py/applications/makebrand/sessions/127.0.0.1-a55916a1-4839-4cd2-96c9-1f7b201ae4ed'
p4484
asbasbasbag69
(g85
g71
NtRp4485
(dp4486
g74
(dp4487
sg83
g3733
sg76
(lp4488
g69
(g90
g71
NtRp4489
(dp4490
g74
(dp4491
g94
g95
ssg83
g4485
sg76
(lp4492
S'session_id'
p4493
asbag69
(g90
g71
NtRp4494
(dp4495
g74
(dp4496
g101
g102
ssg83
g4485
sg76
(lp4497
S':'
asbag69
(g90
g71
NtRp4498
(dp4499
g74
(dp4500
sg83
g4485
sg76
(lp4501
g69
(g70
g71
NtRp4502
(dp4503
g74
(dp4504
g82
I5
ssg83
g4498
sg76
(lp4505
S'127.0.0.1-a55916a1-4839-4cd2-96c9-1f7b201ae4ed'
p4506
asbasbasbag69
(g85
g71
NtRp4507
(dp4508
g74
(dp4509
sg83
g3733
sg76
(lp4510
g69
(g90
g71
NtRp4511
(dp4512
g74
(dp4513
g94
g95
ssg83
g4507
sg76
(lp4514
S'session_id_name'
p4515
asbag69
(g90
g71
NtRp4516
(dp4517
g74
(dp4518
g101
g102
ssg83
g4507
sg76
(lp4519
S':'
asbag69
(g90
g71
NtRp4520
(dp4521
g74
(dp4522
sg83
g4507
sg76
(lp4523
g69
(g70
g71
NtRp4524
(dp4525
g74
(dp4526
g82
I5
ssg83
g4520
sg76
(lp4527
g3790
asbasbasbag69
(g85
g71
NtRp4528
(dp4529
g74
(dp4530
sg83
g3733
sg76
(lp4531
g69
(g90
g71
NtRp4532
(dp4533
g74
(dp4534
g94
g95
ssg83
g4528
sg76
(lp4535
S'session_locked'
p4536
asbag69
(g90
g71
NtRp4537
(dp4538
g74
(dp4539
g101
g102
ssg83
g4528
sg76
(lp4540
S':'
asbag69
(g90
g71
NtRp4541
(dp4542
g74
(dp4543
sg83
g4528
sg76
(lp4544
g69
(g70
g71
NtRp4545
(dp4546
g74
(dp4547
g82
I5
ssg83
g4541
sg76
(lp4548
g1635
asbasbasbag69
(g85
g71
NtRp4549
(dp4550
g74
(dp4551
sg83
g3733
sg76
(lp4552
g69
(g90
g71
NtRp4553
(dp4554
g74
(dp4555
g94
g95
ssg83
g4549
sg76
(lp4556
S'session_new'
p4557
asbag69
(g90
g71
NtRp4558
(dp4559
g74
(dp4560
g101
g102
ssg83
g4549
sg76
(lp4561
S':'
asbag69
(g90
g71
NtRp4562
(dp4563
g74
(dp4564
sg83
g4549
sg76
(lp4565
g69
(g70
g71
NtRp4566
(dp4567
g74
(dp4568
g82
I5
ssg83
g4562
sg76
(lp4569
g112
asbasbasbag69
(g85
g71
NtRp4570
(dp4571
g74
(dp4572
sg83
g3733
sg76
(lp4573
g69
(g90
g71
NtRp4574
(dp4575
g74
(dp4576
g94
g95
ssg83
g4570
sg76
(lp4577
S'status'
p4578
asbag69
(g90
g71
NtRp4579
(dp4580
g74
(dp4581
g101
g102
ssg83
g4570
sg76
(lp4582
S':'
asbag69
(g90
g71
NtRp4583
(dp4584
g74
(dp4585
sg83
g4570
sg76
(lp4586
g69
(g70
g71
NtRp4587
(dp4588
g74
(dp4589
g82
I5
ssg83
g4583
sg76
(lp4590
S'200'
p4591
asbasbasbag69
(g85
g71
NtRp4592
(dp4593
g74
(dp4594
sg83
g3733
sg76
(lp4595
g69
(g90
g71
NtRp4596
(dp4597
g74
(dp4598
g94
g95
ssg83
g4592
sg76
(lp4599
S'subtitle'
p4600
asbag69
(g90
g71
NtRp4601
(dp4602
g74
(dp4603
g101
g102
ssg83
g4592
sg76
(lp4604
S':'
asbag69
(g90
g71
NtRp4605
(dp4606
g74
(dp4607
sg83
g4592
sg76
(lp4608
g69
(g70
g71
NtRp4609
(dp4610
g74
(dp4611
g82
I5
ssg83
g4605
sg76
(lp4612
g4238
(S't\x00\x00\x00\x00'
tRp4613
asbasbasbag69
(g85
g71
NtRp4614
(dp4615
g74
(dp4616
sg83
g3733
sg76
(lp4617
g69
(g90
g71
NtRp4618
(dp4619
g74
(dp4620
g94
g95
ssg83
g4614
sg76
(lp4621
S'title'
p4622
asbag69
(g90
g71
NtRp4623
(dp4624
g74
(dp4625
g101
g102
ssg83
g4614
sg76
(lp4626
S':'
asbag69
(g90
g71
NtRp4627
(dp4628
g74
(dp4629
sg83
g4614
sg76
(lp4630
g69
(g70
g71
NtRp4631
(dp4632
g74
(dp4633
g82
I5
ssg83
g4627
sg76
(lp4634
S'Makebrand'
p4635
asbasbasbag69
(g85
g71
NtRp4636
(dp4637
g74
(dp4638
sg83
g3733
sg76
(lp4639
g69
(g90
g71
NtRp4640
(dp4641
g74
(dp4642
g94
g95
ssg83
g4636
sg76
(lp4643
g2364
asbag69
(g90
g71
NtRp4644
(dp4645
g74
(dp4646
g101
g102
ssg83
g4636
sg76
(lp4647
S':'
asbag69
(g90
g71
NtRp4648
(dp4649
g74
(dp4650
sg83
g4636
sg76
(lp4651
g69
(g70
g71
NtRp4652
(dp4653
g74
(dp4654
g82
I5
ssg83
g4648
sg76
(lp4655
g2377
asbasbasbag69
(g85
g71
NtRp4656
(dp4657
g74
(dp4658
sg83
g3733
sg76
(lp4659
g69
(g90
g71
NtRp4660
(dp4661
g74
(dp4662
g94
g95
ssg83
g4656
sg76
(lp4663
S'view'
p4664
asbag69
(g90
g71
NtRp4665
(dp4666
g74
(dp4667
g101
g102
ssg83
g4656
sg76
(lp4668
S':'
asbag69
(g90
g71
NtRp4669
(dp4670
g74
(dp4671
sg83
g4656
sg76
(lp4672
g69
(g70
g71
NtRp4673
(dp4674
g74
(dp4675
g82
I5
ssg83
g4669
sg76
(lp4676
S'client/new.html'
p4677
asbasbasbasbasbsS'locals'
p4678
(dp4679
S'name'
p4680
S"'avatar'"
p4681
sS'fields'
p4682
S"{'avatar': '', 'description': 'other test', 'name': 'My test'}"
p4683
sS'self'
p4684
S"<Table {'_db': <DAL {'auth_event': <Table {'orig...>, '_id': <gluon.dal.Field object at 0xaa8f56c>}>"
p4685
sS'update'
p4686
g112
sS'new_fields_names'
p4687
S"['description', 'name', 'avatar']"
p4688
sS'ofield'
p4689
S'<gluon.dal.Field object>'
p4690
sS'new_fields'
p4691
S"[(<gluon.dal.Field object>, 'other test'), (<gluon.dal.Field object>, 'My test'), (<gluon.dal.Field object>, ''), (<gluon.dal.Field object>, 1), (<gluon.dal.Field object>, datetime.datetime(2012, 2, 1, 12, 4, 8, 541014)), (<gluon.dal.Field object>, 1), (<gluon.dal.Field object>, datetime.datetime(2012, 2, 1, 12, 4, 8, 541014)), (<gluon.dal.Field object>, 1)]"
p4692
sssS'traceback'
p4693
S'Traceback (most recent call last):\n  File "/home/kaique/Projects/WebApps/web2py/gluon/restricted.py", line 204, in restricted\n    exec ccode in environment\n  File "/home/kaique/Projects/WebApps/web2py/applications/makebrand/controllers/client.py", line 27, in <module>\n  File "/home/kaique/Projects/WebApps/web2py/gluon/globals.py", line 172, in <lambda>\n    self._caller = lambda f: f()\n  File "/home/kaique/Projects/WebApps/web2py/gluon/tools.py", line 2533, in f\n    return action(*a, **b)\n  File "/home/kaique/Projects/WebApps/web2py/applications/makebrand/controllers/client.py", line 13, in new\n    if form.accepts(request, session):\n  File "/home/kaique/Projects/WebApps/web2py/gluon/sqlhtml.py", line 1267, in accepts\n    self.vars.id = self.table.insert(**fields)\n  File "/home/kaique/Projects/WebApps/web2py/gluon/dal.py", line 5597, in insert\n    return self._db._adapter.insert(self,self._listify(fields))\n  File "/home/kaique/Projects/WebApps/web2py/gluon/dal.py", line 5590, in _listify\n    raise SyntaxError,\'Table: missing required field: %s\' % ofield.name\nSyntaxError: Table: missing required field: visibility\n'
p4694
s.