(dp1
S'output'
p2
S"<type 'exceptions.NameError'> name 'project' is not defined"
p3
sS'layer'
p4
S'/home/kaique/Projects/WebApps/web2py/applications/makebrand/models/db.py'
p5
sS'code'
p6
S"# -*- coding: utf-8 -*-\n\n#########################################################################\n## This scaffolding model makes your app work on Google App Engine too\n## File is released under public domain and you can use without limitations\n#########################################################################\n\n## if SSL/HTTPS is properly configured and you want all HTTP requests to\n## be redirected to HTTPS, uncomment the line below:\n# request.requires_https()\n\nif not request.env.web2py_runtime_gae:\n    ## if NOT running on Google App Engine use SQLite or other DB\n    db = DAL('sqlite://storage.sqlite')\nelse:\n    ## connect to Google BigTable (optional 'google:datastore://namespace')\n    db = DAL('google:datastore')\n    ## store sessions and tickets there\n    session.connect(request, response, db = db)\n    ## or store session in Memcache, Redis, etc.\n    ## from gluon.contrib.memdb import MEMDB\n    ## from google.appengine.api.memcache import Client\n    ## session.connect(request, response, db = MEMDB(Client()))\n\n## by default give a view/generic.extension to all actions from localhost\n## none otherwise. a pattern can be 'controller/function.extension'\nresponse.generic_patterns = ['*'] if request.is_local else []\n## (optional) optimize handling of static files\n# response.optimize_css = 'concat,minify,inline'\n# response.optimize_js = 'concat,minify,inline'\n\n#########################################################################\n## Here is sample code if you need for\n## - email capabilities\n## - authentication (registration, login, logout, ... )\n## - authorization (role based authorization)\n## - services (xml, csv, json, xmlrpc, jsonrpc, amf, rss)\n## - old style crud actions\n## (more options discussed in gluon/tools.py)\n#########################################################################\n\nfrom gluon.tools import Auth, Crud, Service, PluginManager, prettydate\nauth = Auth(db, hmac_key=Auth.get_or_create_key())\ncrud, service, plugins = Crud(db), Service(), PluginManager()\n\n## create all tables needed by auth if not custom tables\nauth.define_tables()\n\n## configure email\nmail=auth.settings.mailer\nmail.settings.server = 'logging' or 'smtp.gmail.com:587'\nmail.settings.sender = 'you@gmail.com'\nmail.settings.login = 'username:password'\n\n## configure auth policy\nauth.settings.registration_requires_verification = False\nauth.settings.registration_requires_approval = False\nauth.settings.reset_password_requires_verification = True\n\n## if you need to use OpenID, Facebook, MySpace, Twitter, Linkedin, etc.\n## register with janrain.com, write your domain:api_key in private/janrain.key\nfrom gluon.contrib.login_methods.rpx_account import use_janrain\nuse_janrain(auth,filename='private/janrain.key')\n\n#########################################################################\n## Define your tables below (or better in another model file) for example\n##\n## >>> db.define_table('mytable',Field('myfield','string'))\n##\n## Fields can be 'string','text','password','integer','double','boolean'\n##       'date','time','datetime','blob','upload', 'reference TABLENAME'\n## There is an implicit 'id integer autoincrement' field\n## Consult manual for more options, validators, etc.\n##\n## More API examples for controllers:\n##\n## >>> db.mytable.insert(myfield='value')\n## >>> rows=db(db.mytable.myfield=='value').select(db.mytable.ALL)\n## >>> for row in rows: print row.id, row.myfield\n#########################################################################\n\n\n# Signature, register datatime of the data who was create\nsignature = db.Table(db, \n\t\t\t\t\t 'signature',\n\t\t\t\t\t Field('created_on', 'datetime', default=request.now),\n\t\t\t\t\t Field('created_by', db.auth_user, default=auth.user_id),\t\t\t\n\t\t\t\t\t Field('updated_on', 'datetime', default=request.now),\n\t\t\t\t\t Field('updated_by', db.auth_user, default=auth.user_id) )\n\n# Briefing media table\ndb.define_table('media', \n\t\t\t\tField('name', 'string'),\n\t\t\t\tField('description', 'text'),\n\t\t\t\tField('visibility', 'boolean'),\n\t\t\t\tField('file', 'upload'),\n\t\t\t\tsignature)\n\t\t\t\t\n# Briefing client table\ndb.define_table('client', \n                Field('name', 'string', requires=[IS_NOT_EMPTY()]),\n                Field('description', 'text', requires=[IS_NOT_EMPTY()]),\n                Field('visibility', 'boolean'),\n                Field('user_id', db.auth_user, default= auth.user_id),\n                Field('avatar', 'upload', db.media), \n                signature)\n\n# Briefing project table\ndb.define_table('project', \n\t\t\t\tField('name', 'string'),\n\t\t\t\tField('description', 'text'),\n\t\t\t\tField('terminated', 'boolean'),\n\t\t\t\tField('client_id', db.client),\n\t\t\t\tField('user_id', db.auth_user, default= auth.user_id),\n\t\t\t\tsignature)\n\ndb.project.client_id.widget = SQLFORM.widgets.options.widget(project, name)\n\n# Briefing sub project table\ndb.define_table('subproject', \n\t\t\t\tField('name', 'string'),\n\t\t\t\tField('description', 'text'),\n\t\t\t\tField('visibility', 'boolean'),\n\t\t\t\tField('project_id', db.project),\n\t\t\t\tField('user_id', db.auth_user, default= auth.user_id),\n\t\t\t\tsignature)\n\n# Briefing question table\ndb.define_table('question', \n\t\t\t\tField('name', 'string'),\n\t\t\t\tField('description', 'text'),\n\t\t\t\tField('visibility', 'boolean'),\n\t\t\t\tField('project_id', db.project),\n\t\t\t\tField('subproject_id', db.project),\n\t\t\t\tField('user_id', db.auth_user, default= auth.user_id),\n\t\t\t\tsignature)\n\n# Briefing answer table\ndb.define_table('answer', \n\t\t\t\tField('name', 'string'),\n\t\t\t\tField('description', 'text'),\n\t\t\t\tField('visibility', 'boolean'),\n\t\t\t\tField('project_id', db.project),\n\t\t\t\tField('subproject_id', db.subproject),\n\t\t\t\tField('user_id', db.auth_user, default= auth.user_id),\n\t\t\t\tField('file', db.media),\n\t\t\t\tsignature)\n"
p7
sS'snapshot'
p8
(dp9
S'exception'
p10
(dp11
S'__hash__'
p12
S"<method-wrapper '__hash__' of exceptions.NameError object>"
p13
sS'__setattr__'
p14
S"<method-wrapper '__setattr__' of exceptions.NameError object>"
p15
sS'__reduce_ex__'
p16
S'<built-in method __reduce_ex__ of exceptions.NameError object>'
p17
sS'__getslice__'
p18
S"<method-wrapper '__getslice__' of exceptions.NameError object>"
p19
sS'__getitem__'
p20
S"<method-wrapper '__getitem__' of exceptions.NameError object>"
p21
sS'__setstate__'
p22
S'<built-in method __setstate__ of exceptions.NameError object>'
p23
sS'__reduce__'
p24
S'<built-in method __reduce__ of exceptions.NameError object>'
p25
sS'__str__'
p26
S"<method-wrapper '__str__' of exceptions.NameError object>"
p27
sS'__format__'
p28
S'<built-in method __format__ of exceptions.NameError object>'
p29
sS'__getattribute__'
p30
S"<method-wrapper '__getattribute__' of exceptions.NameError object>"
p31
sS'__class__'
p32
S"<type 'exceptions.NameError'>"
p33
sS'__unicode__'
p34
S'<built-in method __unicode__ of exceptions.NameError object>'
p35
sS'__delattr__'
p36
S"<method-wrapper '__delattr__' of exceptions.NameError object>"
p37
sS'__subclasshook__'
p38
S'<built-in method __subclasshook__ of type object>'
p39
sS'__repr__'
p40
S"<method-wrapper '__repr__' of exceptions.NameError object>"
p41
sS'args'
p42
S'("name \'project\' is not defined",)'
p43
sS'__dict__'
p44
S'{}'
p45
sS'__sizeof__'
p46
S'<built-in method __sizeof__ of exceptions.NameError object>'
p47
sS'__doc__'
p48
S"'Name not found globally.'"
p49
sS'__init__'
p50
S"<method-wrapper '__init__' of exceptions.NameError object>"
p51
sS'__new__'
p52
S'<built-in method __new__ of type object>'
p53
ssS'evalue'
p54
S"name 'project' is not defined"
p55
sS'request'
p56
ccopy_reg
_reconstructor
p57
(cgluon.html
BEAUTIFY
p58
c__builtin__
object
p59
NtRp60
(dp61
S'attributes'
p62
(dp63
sS'components'
p64
(lp65
g57
(cgluon.html
TABLE
p66
g59
NtRp67
(dp68
g62
(dp69
S'level'
p70
I5
ssS'parent'
p71
Nsg64
(lp72
g57
(cgluon.html
TR
p73
g59
NtRp74
(dp75
g62
(dp76
sg71
g67
sg64
(lp77
g57
(cgluon.html
TD
p78
g59
NtRp79
(dp80
g62
(dp81
S'_style'
p82
S'font-weight:bold;vertical-align:top'
p83
ssg71
g74
sg64
(lp84
S'ajax'
p85
asbag57
(g78
g59
NtRp86
(dp87
g62
(dp88
S'_valign'
p89
S'top'
p90
ssg71
g74
sg64
(lp91
S':'
asbag57
(g78
g59
NtRp92
(dp93
g62
(dp94
sg71
g74
sg64
(lp95
g57
(g58
g59
NtRp96
(dp97
g62
(dp98
g70
I5
ssg71
g92
sg64
(lp99
S'False'
p100
asbasbasbag57
(g73
g59
NtRp101
(dp102
g62
(dp103
sg71
g67
sg64
(lp104
g57
(g78
g59
NtRp105
(dp106
g62
(dp107
g82
g83
ssg71
g101
sg64
(lp108
S'application'
p109
asbag57
(g78
g59
NtRp110
(dp111
g62
(dp112
g89
g90
ssg71
g101
sg64
(lp113
S':'
asbag57
(g78
g59
NtRp114
(dp115
g62
(dp116
sg71
g101
sg64
(lp117
g57
(g58
g59
NtRp118
(dp119
g62
(dp120
g70
I5
ssg71
g114
sg64
(lp121
S'makebrand'
p122
asbasbasbag57
(g73
g59
NtRp123
(dp124
g62
(dp125
sg71
g67
sg64
(lp126
g57
(g78
g59
NtRp127
(dp128
g62
(dp129
g82
g83
ssg71
g123
sg64
(lp130
g42
asbag57
(g78
g59
NtRp131
(dp132
g62
(dp133
g89
g90
ssg71
g123
sg64
(lp134
S':'
asbag57
(g78
g59
NtRp135
(dp136
g62
(dp137
sg71
g123
sg64
(lp138
g57
(g58
g59
NtRp139
(dp140
g62
(dp141
g70
I5
ssg71
g135
sg64
(lp142
g57
(g66
g59
NtRp143
(dp144
g62
(dp145
g70
I4
ssg71
Nsg64
(lp146
sbasbasbasbag57
(g73
g59
NtRp147
(dp148
g62
(dp149
sg71
g67
sg64
(lp150
g57
(g78
g59
NtRp151
(dp152
g62
(dp153
g82
g83
ssg71
g147
sg64
(lp154
S'body'
p155
asbag57
(g78
g59
NtRp156
(dp157
g62
(dp158
g89
g90
ssg71
g147
sg64
(lp159
S':'
asbag57
(g78
g59
NtRp160
(dp161
g62
(dp162
sg71
g147
sg64
(lp163
g57
(g58
g59
NtRp164
(dp165
g62
(dp166
g70
I5
ssg71
g160
sg64
(lp167
S'<cStringIO.StringO object at 0x9651d20>'
p168
asbasbasbag57
(g73
g59
NtRp169
(dp170
g62
(dp171
sg71
g67
sg64
(lp172
g57
(g78
g59
NtRp173
(dp174
g62
(dp175
g82
g83
ssg71
g169
sg64
(lp176
S'client'
p177
asbag57
(g78
g59
NtRp178
(dp179
g62
(dp180
g89
g90
ssg71
g169
sg64
(lp181
S':'
asbag57
(g78
g59
NtRp182
(dp183
g62
(dp184
sg71
g169
sg64
(lp185
g57
(g58
g59
NtRp186
(dp187
g62
(dp188
g70
I5
ssg71
g182
sg64
(lp189
S'127.0.0.1'
p190
asbasbasbag57
(g73
g59
NtRp191
(dp192
g62
(dp193
sg71
g67
sg64
(lp194
g57
(g78
g59
NtRp195
(dp196
g62
(dp197
g82
g83
ssg71
g191
sg64
(lp198
S'controller'
p199
asbag57
(g78
g59
NtRp200
(dp201
g62
(dp202
g89
g90
ssg71
g191
sg64
(lp203
S':'
asbag57
(g78
g59
NtRp204
(dp205
g62
(dp206
sg71
g191
sg64
(lp207
g57
(g58
g59
NtRp208
(dp209
g62
(dp210
g70
I5
ssg71
g204
sg64
(lp211
S'project'
p212
asbasbasbag57
(g73
g59
NtRp213
(dp214
g62
(dp215
sg71
g67
sg64
(lp216
g57
(g78
g59
NtRp217
(dp218
g62
(dp219
g82
g83
ssg71
g213
sg64
(lp220
S'cookies'
p221
asbag57
(g78
g59
NtRp222
(dp223
g62
(dp224
g89
g90
ssg71
g213
sg64
(lp225
S':'
asbag57
(g78
g59
NtRp226
(dp227
g62
(dp228
sg71
g213
sg64
(lp229
g57
(g58
g59
NtRp230
(dp231
g62
(dp232
g70
I5
ssg71
g226
sg64
(lp233
g57
(g66
g59
NtRp234
(dp235
g62
(dp236
g70
I4
ssg71
Nsg64
(lp237
g57
(g73
g59
NtRp238
(dp239
g62
(dp240
sg71
g234
sg64
(lp241
g57
(g78
g59
NtRp242
(dp243
g62
(dp244
g82
g83
ssg71
g238
sg64
(lp245
S'session_id_admin'
p246
asbag57
(g78
g59
NtRp247
(dp248
g62
(dp249
g89
g90
ssg71
g238
sg64
(lp250
S':'
asbag57
(g78
g59
NtRp251
(dp252
g62
(dp253
sg71
g238
sg64
(lp254
g57
(g58
g59
NtRp255
(dp256
g62
(dp257
g70
I4
ssg71
g251
sg64
(lp258
g57
(g66
g59
NtRp259
(dp260
g62
(dp261
g70
I3
ssg71
Nsg64
(lp262
g57
(g73
g59
NtRp263
(dp264
g62
(dp265
sg71
g259
sg64
(lp266
g57
(g78
g59
NtRp267
(dp268
g62
(dp269
g82
g83
ssg71
g263
sg64
(lp270
S'comment'
p271
asbag57
(g78
g59
NtRp272
(dp273
g62
(dp274
g89
g90
ssg71
g263
sg64
(lp275
S':'
asbag57
(g78
g59
NtRp276
(dp277
g62
(dp278
sg71
g263
sg64
(lp279
g57
(g58
g59
NtRp280
(dp281
g62
(dp282
g70
I3
ssg71
g276
sg64
(lp283
S''
asbasbasbag57
(g73
g59
NtRp284
(dp285
g62
(dp286
sg71
g259
sg64
(lp287
g57
(g78
g59
NtRp288
(dp289
g62
(dp290
g82
g83
ssg71
g284
sg64
(lp291
S'domain'
p292
asbag57
(g78
g59
NtRp293
(dp294
g62
(dp295
g89
g90
ssg71
g284
sg64
(lp296
S':'
asbag57
(g78
g59
NtRp297
(dp298
g62
(dp299
sg71
g284
sg64
(lp300
g57
(g58
g59
NtRp301
(dp302
g62
(dp303
g70
I3
ssg71
g297
sg64
(lp304
S''
asbasbasbag57
(g73
g59
NtRp305
(dp306
g62
(dp307
sg71
g259
sg64
(lp308
g57
(g78
g59
NtRp309
(dp310
g62
(dp311
g82
g83
ssg71
g305
sg64
(lp312
S'expires'
p313
asbag57
(g78
g59
NtRp314
(dp315
g62
(dp316
g89
g90
ssg71
g305
sg64
(lp317
S':'
asbag57
(g78
g59
NtRp318
(dp319
g62
(dp320
sg71
g305
sg64
(lp321
g57
(g58
g59
NtRp322
(dp323
g62
(dp324
g70
I3
ssg71
g318
sg64
(lp325
S''
asbasbasbag57
(g73
g59
NtRp326
(dp327
g62
(dp328
sg71
g259
sg64
(lp329
g57
(g78
g59
NtRp330
(dp331
g62
(dp332
g82
g83
ssg71
g326
sg64
(lp333
S'httponly'
p334
asbag57
(g78
g59
NtRp335
(dp336
g62
(dp337
g89
g90
ssg71
g326
sg64
(lp338
S':'
asbag57
(g78
g59
NtRp339
(dp340
g62
(dp341
sg71
g326
sg64
(lp342
g57
(g58
g59
NtRp343
(dp344
g62
(dp345
g70
I3
ssg71
g339
sg64
(lp346
S''
asbasbasbag57
(g73
g59
NtRp347
(dp348
g62
(dp349
sg71
g259
sg64
(lp350
g57
(g78
g59
NtRp351
(dp352
g62
(dp353
g82
g83
ssg71
g347
sg64
(lp354
S'max-age'
p355
asbag57
(g78
g59
NtRp356
(dp357
g62
(dp358
g89
g90
ssg71
g347
sg64
(lp359
S':'
asbag57
(g78
g59
NtRp360
(dp361
g62
(dp362
sg71
g347
sg64
(lp363
g57
(g58
g59
NtRp364
(dp365
g62
(dp366
g70
I3
ssg71
g360
sg64
(lp367
S''
asbasbasbag57
(g73
g59
NtRp368
(dp369
g62
(dp370
sg71
g259
sg64
(lp371
g57
(g78
g59
NtRp372
(dp373
g62
(dp374
g82
g83
ssg71
g368
sg64
(lp375
S'path'
p376
asbag57
(g78
g59
NtRp377
(dp378
g62
(dp379
g89
g90
ssg71
g368
sg64
(lp380
S':'
asbag57
(g78
g59
NtRp381
(dp382
g62
(dp383
sg71
g368
sg64
(lp384
g57
(g58
g59
NtRp385
(dp386
g62
(dp387
g70
I3
ssg71
g381
sg64
(lp388
S''
asbasbasbag57
(g73
g59
NtRp389
(dp390
g62
(dp391
sg71
g259
sg64
(lp392
g57
(g78
g59
NtRp393
(dp394
g62
(dp395
g82
g83
ssg71
g389
sg64
(lp396
S'secure'
p397
asbag57
(g78
g59
NtRp398
(dp399
g62
(dp400
g89
g90
ssg71
g389
sg64
(lp401
S':'
asbag57
(g78
g59
NtRp402
(dp403
g62
(dp404
sg71
g389
sg64
(lp405
g57
(g58
g59
NtRp406
(dp407
g62
(dp408
g70
I3
ssg71
g402
sg64
(lp409
S''
asbasbasbag57
(g73
g59
NtRp410
(dp411
g62
(dp412
sg71
g259
sg64
(lp413
g57
(g78
g59
NtRp414
(dp415
g62
(dp416
g82
g83
ssg71
g410
sg64
(lp417
S'version'
p418
asbag57
(g78
g59
NtRp419
(dp420
g62
(dp421
g89
g90
ssg71
g410
sg64
(lp422
S':'
asbag57
(g78
g59
NtRp423
(dp424
g62
(dp425
sg71
g410
sg64
(lp426
g57
(g58
g59
NtRp427
(dp428
g62
(dp429
g70
I3
ssg71
g423
sg64
(lp430
S''
asbasbasbasbasbasbasbag57
(g73
g59
NtRp431
(dp432
g62
(dp433
sg71
g234
sg64
(lp434
g57
(g78
g59
NtRp435
(dp436
g62
(dp437
g82
g83
ssg71
g431
sg64
(lp438
S'session_id_makebrand'
p439
asbag57
(g78
g59
NtRp440
(dp441
g62
(dp442
g89
g90
ssg71
g431
sg64
(lp443
S':'
asbag57
(g78
g59
NtRp444
(dp445
g62
(dp446
sg71
g431
sg64
(lp447
g57
(g58
g59
NtRp448
(dp449
g62
(dp450
g70
I4
ssg71
g444
sg64
(lp451
g57
(g66
g59
NtRp452
(dp453
g62
(dp454
g70
I3
ssg71
Nsg64
(lp455
g57
(g73
g59
NtRp456
(dp457
g62
(dp458
sg71
g452
sg64
(lp459
g57
(g78
g59
NtRp460
(dp461
g62
(dp462
g82
g83
ssg71
g456
sg64
(lp463
g271
asbag57
(g78
g59
NtRp464
(dp465
g62
(dp466
g89
g90
ssg71
g456
sg64
(lp467
S':'
asbag57
(g78
g59
NtRp468
(dp469
g62
(dp470
sg71
g456
sg64
(lp471
g57
(g58
g59
NtRp472
(dp473
g62
(dp474
g70
I3
ssg71
g468
sg64
(lp475
S''
asbasbasbag57
(g73
g59
NtRp476
(dp477
g62
(dp478
sg71
g452
sg64
(lp479
g57
(g78
g59
NtRp480
(dp481
g62
(dp482
g82
g83
ssg71
g476
sg64
(lp483
g292
asbag57
(g78
g59
NtRp484
(dp485
g62
(dp486
g89
g90
ssg71
g476
sg64
(lp487
S':'
asbag57
(g78
g59
NtRp488
(dp489
g62
(dp490
sg71
g476
sg64
(lp491
g57
(g58
g59
NtRp492
(dp493
g62
(dp494
g70
I3
ssg71
g488
sg64
(lp495
S''
asbasbasbag57
(g73
g59
NtRp496
(dp497
g62
(dp498
sg71
g452
sg64
(lp499
g57
(g78
g59
NtRp500
(dp501
g62
(dp502
g82
g83
ssg71
g496
sg64
(lp503
g313
asbag57
(g78
g59
NtRp504
(dp505
g62
(dp506
g89
g90
ssg71
g496
sg64
(lp507
S':'
asbag57
(g78
g59
NtRp508
(dp509
g62
(dp510
sg71
g496
sg64
(lp511
g57
(g58
g59
NtRp512
(dp513
g62
(dp514
g70
I3
ssg71
g508
sg64
(lp515
S''
asbasbasbag57
(g73
g59
NtRp516
(dp517
g62
(dp518
sg71
g452
sg64
(lp519
g57
(g78
g59
NtRp520
(dp521
g62
(dp522
g82
g83
ssg71
g516
sg64
(lp523
g334
asbag57
(g78
g59
NtRp524
(dp525
g62
(dp526
g89
g90
ssg71
g516
sg64
(lp527
S':'
asbag57
(g78
g59
NtRp528
(dp529
g62
(dp530
sg71
g516
sg64
(lp531
g57
(g58
g59
NtRp532
(dp533
g62
(dp534
g70
I3
ssg71
g528
sg64
(lp535
S''
asbasbasbag57
(g73
g59
NtRp536
(dp537
g62
(dp538
sg71
g452
sg64
(lp539
g57
(g78
g59
NtRp540
(dp541
g62
(dp542
g82
g83
ssg71
g536
sg64
(lp543
g355
asbag57
(g78
g59
NtRp544
(dp545
g62
(dp546
g89
g90
ssg71
g536
sg64
(lp547
S':'
asbag57
(g78
g59
NtRp548
(dp549
g62
(dp550
sg71
g536
sg64
(lp551
g57
(g58
g59
NtRp552
(dp553
g62
(dp554
g70
I3
ssg71
g548
sg64
(lp555
S''
asbasbasbag57
(g73
g59
NtRp556
(dp557
g62
(dp558
sg71
g452
sg64
(lp559
g57
(g78
g59
NtRp560
(dp561
g62
(dp562
g82
g83
ssg71
g556
sg64
(lp563
g376
asbag57
(g78
g59
NtRp564
(dp565
g62
(dp566
g89
g90
ssg71
g556
sg64
(lp567
S':'
asbag57
(g78
g59
NtRp568
(dp569
g62
(dp570
sg71
g556
sg64
(lp571
g57
(g58
g59
NtRp572
(dp573
g62
(dp574
g70
I3
ssg71
g568
sg64
(lp575
S''
asbasbasbag57
(g73
g59
NtRp576
(dp577
g62
(dp578
sg71
g452
sg64
(lp579
g57
(g78
g59
NtRp580
(dp581
g62
(dp582
g82
g83
ssg71
g576
sg64
(lp583
g397
asbag57
(g78
g59
NtRp584
(dp585
g62
(dp586
g89
g90
ssg71
g576
sg64
(lp587
S':'
asbag57
(g78
g59
NtRp588
(dp589
g62
(dp590
sg71
g576
sg64
(lp591
g57
(g58
g59
NtRp592
(dp593
g62
(dp594
g70
I3
ssg71
g588
sg64
(lp595
S''
asbasbasbag57
(g73
g59
NtRp596
(dp597
g62
(dp598
sg71
g452
sg64
(lp599
g57
(g78
g59
NtRp600
(dp601
g62
(dp602
g82
g83
ssg71
g596
sg64
(lp603
g418
asbag57
(g78
g59
NtRp604
(dp605
g62
(dp606
g89
g90
ssg71
g596
sg64
(lp607
S':'
asbag57
(g78
g59
NtRp608
(dp609
g62
(dp610
sg71
g596
sg64
(lp611
g57
(g58
g59
NtRp612
(dp613
g62
(dp614
g70
I3
ssg71
g608
sg64
(lp615
S''
asbasbasbasbasbasbasbasbasbasbasbag57
(g73
g59
NtRp616
(dp617
g62
(dp618
sg71
g67
sg64
(lp619
g57
(g78
g59
NtRp620
(dp621
g62
(dp622
g82
g83
ssg71
g616
sg64
(lp623
S'env'
p624
asbag57
(g78
g59
NtRp625
(dp626
g62
(dp627
g89
g90
ssg71
g616
sg64
(lp628
S':'
asbag57
(g78
g59
NtRp629
(dp630
g62
(dp631
sg71
g616
sg64
(lp632
g57
(g58
g59
NtRp633
(dp634
g62
(dp635
g70
I5
ssg71
g629
sg64
(lp636
g57
(g66
g59
NtRp637
(dp638
g62
(dp639
g70
I4
ssg71
Nsg64
(lp640
g57
(g73
g59
NtRp641
(dp642
g62
(dp643
sg71
g637
sg64
(lp644
g57
(g78
g59
NtRp645
(dp646
g62
(dp647
g82
g83
ssg71
g641
sg64
(lp648
S'app_folders'
p649
asbag57
(g78
g59
NtRp650
(dp651
g62
(dp652
g89
g90
ssg71
g641
sg64
(lp653
S':'
asbag57
(g78
g59
NtRp654
(dp655
g62
(dp656
sg71
g641
sg64
(lp657
g57
(g58
g59
NtRp658
(dp659
g62
(dp660
g70
I4
ssg71
g654
sg64
(lp661
S"set(['/home/kaique/Projects/WebApps/web2py/applications/makebrand/', '/home/kaique/Projects/WebApps/web2py/applications/admin/'])"
p662
asbasbasbag57
(g73
g59
NtRp663
(dp664
g62
(dp665
sg71
g637
sg64
(lp666
g57
(g78
g59
NtRp667
(dp668
g62
(dp669
g82
g83
ssg71
g663
sg64
(lp670
S'applications_parent'
p671
asbag57
(g78
g59
NtRp672
(dp673
g62
(dp674
g89
g90
ssg71
g663
sg64
(lp675
S':'
asbag57
(g78
g59
NtRp676
(dp677
g62
(dp678
sg71
g663
sg64
(lp679
g57
(g58
g59
NtRp680
(dp681
g62
(dp682
g70
I4
ssg71
g676
sg64
(lp683
S'/home/kaique/Projects/WebApps/web2py'
p684
asbasbasbag57
(g73
g59
NtRp685
(dp686
g62
(dp687
sg71
g637
sg64
(lp688
g57
(g78
g59
NtRp689
(dp690
g62
(dp691
g82
g83
ssg71
g685
sg64
(lp692
S'cmd_args'
p693
asbag57
(g78
g59
NtRp694
(dp695
g62
(dp696
g89
g90
ssg71
g685
sg64
(lp697
S':'
asbag57
(g78
g59
NtRp698
(dp699
g62
(dp700
sg71
g685
sg64
(lp701
g57
(g58
g59
NtRp702
(dp703
g62
(dp704
g70
I4
ssg71
g698
sg64
(lp705
g57
(g66
g59
NtRp706
(dp707
g62
(dp708
g70
I3
ssg71
Nsg64
(lp709
sbasbasbasbag57
(g73
g59
NtRp710
(dp711
g62
(dp712
sg71
g637
sg64
(lp713
g57
(g78
g59
NtRp714
(dp715
g62
(dp716
g82
g83
ssg71
g710
sg64
(lp717
S'cmd_options'
p718
asbag57
(g78
g59
NtRp719
(dp720
g62
(dp721
g89
g90
ssg71
g710
sg64
(lp722
S':'
asbag57
(g78
g59
NtRp723
(dp724
g62
(dp725
sg71
g710
sg64
(lp726
g57
(g58
g59
NtRp727
(dp728
g62
(dp729
g70
I4
ssg71
g723
sg64
(lp730
S"<Values at 0x8d357ec: {'verbose': False, 'ip': '127.0.0.1', 'shutdown_timeout': 5, 'taskbar': False, 'nocron': False, 'pid_filename': 'httpserver.pid', 'maxthreads': None, 'softcron': False, 'server_name': 'ubuntu', 'bpython': False, 'nogui': False, 'port': 8000, 'extcron': False, 'debuglevel': 30, 'test': None, 'folder': '/home/kaique/Projects/WebApps/web2py', 'config': '', 'import_models': False, 'winservice': '', 'shell': None, 'run': '', 'log_filename': 'httpserver.log', 'args': [''], 'socket_timeout': 1, 'ssl_ca_certificate': None, 'scheduler': None, 'profiler_filename': None, 'ssl_private_key': '', 'password': 'dev', 'request_queue_size': 5, 'ssl_certificate': '', 'cronjob': False, 'numthreads': None, 'quiet': False, 'interfaces': None, 'minthreads': None, 'timeout': 10, 'plain': False, 'nobanner': False}>"
p731
asbasbasbag57
(g73
g59
NtRp732
(dp733
g62
(dp734
sg71
g637
sg64
(lp735
g57
(g78
g59
NtRp736
(dp737
g62
(dp738
g82
g83
ssg71
g732
sg64
(lp739
S'db_sessions'
p740
asbag57
(g78
g59
NtRp741
(dp742
g62
(dp743
g89
g90
ssg71
g732
sg64
(lp744
S':'
asbag57
(g78
g59
NtRp745
(dp746
g62
(dp747
sg71
g732
sg64
(lp748
g57
(g58
g59
NtRp749
(dp750
g62
(dp751
g70
I4
ssg71
g745
sg64
(lp752
S'set([])'
p753
asbasbasbag57
(g73
g59
NtRp754
(dp755
g62
(dp756
sg71
g637
sg64
(lp757
g57
(g78
g59
NtRp758
(dp759
g62
(dp760
g82
g83
ssg71
g754
sg64
(lp761
S'debugging'
p762
asbag57
(g78
g59
NtRp763
(dp764
g62
(dp765
g89
g90
ssg71
g754
sg64
(lp766
S':'
asbag57
(g78
g59
NtRp767
(dp768
g62
(dp769
sg71
g754
sg64
(lp770
g57
(g58
g59
NtRp771
(dp772
g62
(dp773
g70
I4
ssg71
g767
sg64
(lp774
g100
asbasbasbag57
(g73
g59
NtRp775
(dp776
g62
(dp777
sg71
g637
sg64
(lp778
g57
(g78
g59
NtRp779
(dp780
g62
(dp781
g82
g83
ssg71
g775
sg64
(lp782
S'gluon_parent'
p783
asbag57
(g78
g59
NtRp784
(dp785
g62
(dp786
g89
g90
ssg71
g775
sg64
(lp787
S':'
asbag57
(g78
g59
NtRp788
(dp789
g62
(dp790
sg71
g775
sg64
(lp791
g57
(g58
g59
NtRp792
(dp793
g62
(dp794
g70
I4
ssg71
g788
sg64
(lp795
S'/home/kaique/Projects/WebApps/web2py'
p796
asbasbasbag57
(g73
g59
NtRp797
(dp798
g62
(dp799
sg71
g637
sg64
(lp800
g57
(g78
g59
NtRp801
(dp802
g62
(dp803
g82
g83
ssg71
g797
sg64
(lp804
S'http_accept'
p805
asbag57
(g78
g59
NtRp806
(dp807
g62
(dp808
g89
g90
ssg71
g797
sg64
(lp809
S':'
asbag57
(g78
g59
NtRp810
(dp811
g62
(dp812
sg71
g797
sg64
(lp813
g57
(g58
g59
NtRp814
(dp815
g62
(dp816
g70
I4
ssg71
g810
sg64
(lp817
S'text/html,application/xhtml+xml,application/xml;q=0.9,*/*;q=0.8'
p818
asbasbasbag57
(g73
g59
NtRp819
(dp820
g62
(dp821
sg71
g637
sg64
(lp822
g57
(g78
g59
NtRp823
(dp824
g62
(dp825
g82
g83
ssg71
g819
sg64
(lp826
S'http_accept_charset'
p827
asbag57
(g78
g59
NtRp828
(dp829
g62
(dp830
g89
g90
ssg71
g819
sg64
(lp831
S':'
asbag57
(g78
g59
NtRp832
(dp833
g62
(dp834
sg71
g819
sg64
(lp835
g57
(g58
g59
NtRp836
(dp837
g62
(dp838
g70
I4
ssg71
g832
sg64
(lp839
S'UTF-8,*;q=0.5'
p840
asbasbasbag57
(g73
g59
NtRp841
(dp842
g62
(dp843
sg71
g637
sg64
(lp844
g57
(g78
g59
NtRp845
(dp846
g62
(dp847
g82
g83
ssg71
g841
sg64
(lp848
S'http_accept_encoding'
p849
asbag57
(g78
g59
NtRp850
(dp851
g62
(dp852
g89
g90
ssg71
g841
sg64
(lp853
S':'
asbag57
(g78
g59
NtRp854
(dp855
g62
(dp856
sg71
g841
sg64
(lp857
g57
(g58
g59
NtRp858
(dp859
g62
(dp860
g70
I4
ssg71
g854
sg64
(lp861
S'gzip,deflate,sdch'
p862
asbasbasbag57
(g73
g59
NtRp863
(dp864
g62
(dp865
sg71
g637
sg64
(lp866
g57
(g78
g59
NtRp867
(dp868
g62
(dp869
g82
g83
ssg71
g863
sg64
(lp870
S'http_accept_language'
p871
asbag57
(g78
g59
NtRp872
(dp873
g62
(dp874
g89
g90
ssg71
g863
sg64
(lp875
S':'
asbag57
(g78
g59
NtRp876
(dp877
g62
(dp878
sg71
g863
sg64
(lp879
g57
(g58
g59
NtRp880
(dp881
g62
(dp882
g70
I4
ssg71
g876
sg64
(lp883
S'pt-BR,pt;q=0.8,en-US;q=0.6,en;q=0.4'
p884
asbasbasbag57
(g73
g59
NtRp885
(dp886
g62
(dp887
sg71
g637
sg64
(lp888
g57
(g78
g59
NtRp889
(dp890
g62
(dp891
g82
g83
ssg71
g885
sg64
(lp892
S'http_cache_control'
p893
asbag57
(g78
g59
NtRp894
(dp895
g62
(dp896
g89
g90
ssg71
g885
sg64
(lp897
S':'
asbag57
(g78
g59
NtRp898
(dp899
g62
(dp900
sg71
g885
sg64
(lp901
g57
(g58
g59
NtRp902
(dp903
g62
(dp904
g70
I4
ssg71
g898
sg64
(lp905
S'max-age=0'
p906
asbasbasbag57
(g73
g59
NtRp907
(dp908
g62
(dp909
sg71
g637
sg64
(lp910
g57
(g78
g59
NtRp911
(dp912
g62
(dp913
g82
g83
ssg71
g907
sg64
(lp914
S'http_connection'
p915
asbag57
(g78
g59
NtRp916
(dp917
g62
(dp918
g89
g90
ssg71
g907
sg64
(lp919
S':'
asbag57
(g78
g59
NtRp920
(dp921
g62
(dp922
sg71
g907
sg64
(lp923
g57
(g58
g59
NtRp924
(dp925
g62
(dp926
g70
I4
ssg71
g920
sg64
(lp927
S'keep-alive'
p928
asbasbasbag57
(g73
g59
NtRp929
(dp930
g62
(dp931
sg71
g637
sg64
(lp932
g57
(g78
g59
NtRp933
(dp934
g62
(dp935
g82
g83
ssg71
g929
sg64
(lp936
S'http_cookie'
p937
asbag57
(g78
g59
NtRp938
(dp939
g62
(dp940
g89
g90
ssg71
g929
sg64
(lp941
S':'
asbag57
(g78
g59
NtRp942
(dp943
g62
(dp944
sg71
g929
sg64
(lp945
g57
(g58
g59
NtRp946
(dp947
g62
(dp948
g70
I4
ssg71
g942
sg64
(lp949
S'session_id_makebrand=127.0.0.1-e3ba017f-c4fb-45c9-8d16-b94cbdfde86f; session_id_admin=127.0.0.1-255cffc9-930c-49c1-9c0e-a548597dcd2e'
p950
asbasbasbag57
(g73
g59
NtRp951
(dp952
g62
(dp953
sg71
g637
sg64
(lp954
g57
(g78
g59
NtRp955
(dp956
g62
(dp957
g82
g83
ssg71
g951
sg64
(lp958
S'http_host'
p959
asbag57
(g78
g59
NtRp960
(dp961
g62
(dp962
g89
g90
ssg71
g951
sg64
(lp963
S':'
asbag57
(g78
g59
NtRp964
(dp965
g62
(dp966
sg71
g951
sg64
(lp967
g57
(g58
g59
NtRp968
(dp969
g62
(dp970
g70
I4
ssg71
g964
sg64
(lp971
S'127.0.0.1:8000'
p972
asbasbasbag57
(g73
g59
NtRp973
(dp974
g62
(dp975
sg71
g637
sg64
(lp976
g57
(g78
g59
NtRp977
(dp978
g62
(dp979
g82
g83
ssg71
g973
sg64
(lp980
S'http_referer'
p981
asbag57
(g78
g59
NtRp982
(dp983
g62
(dp984
g89
g90
ssg71
g973
sg64
(lp985
S':'
asbag57
(g78
g59
NtRp986
(dp987
g62
(dp988
sg71
g973
sg64
(lp989
g57
(g58
g59
NtRp990
(dp991
g62
(dp992
g70
I4
ssg71
g986
sg64
(lp993
S'http://127.0.0.1:8000/makebrand/project/index'
p994
asbasbasbag57
(g73
g59
NtRp995
(dp996
g62
(dp997
sg71
g637
sg64
(lp998
g57
(g78
g59
NtRp999
(dp1000
g62
(dp1001
g82
g83
ssg71
g995
sg64
(lp1002
S'http_user_agent'
p1003
asbag57
(g78
g59
NtRp1004
(dp1005
g62
(dp1006
g89
g90
ssg71
g995
sg64
(lp1007
S':'
asbag57
(g78
g59
NtRp1008
(dp1009
g62
(dp1010
sg71
g995
sg64
(lp1011
g57
(g58
g59
NtRp1012
(dp1013
g62
(dp1014
g70
I4
ssg71
g1008
sg64
(lp1015
S'Mozilla/5.0 (X11; Linux i686) AppleWebKit/535.7 (KHTML, like Gecko) Chrome/16.0.912.77 Safari/535.7'
p1016
asbasbasbag57
(g73
g59
NtRp1017
(dp1018
g62
(dp1019
sg71
g637
sg64
(lp1020
g57
(g78
g59
NtRp1021
(dp1022
g62
(dp1023
g82
g83
ssg71
g1017
sg64
(lp1024
S'is_jython'
p1025
asbag57
(g78
g59
NtRp1026
(dp1027
g62
(dp1028
g89
g90
ssg71
g1017
sg64
(lp1029
S':'
asbag57
(g78
g59
NtRp1030
(dp1031
g62
(dp1032
sg71
g1017
sg64
(lp1033
g57
(g58
g59
NtRp1034
(dp1035
g62
(dp1036
g70
I4
ssg71
g1030
sg64
(lp1037
g100
asbasbasbag57
(g73
g59
NtRp1038
(dp1039
g62
(dp1040
sg71
g637
sg64
(lp1041
g57
(g78
g59
NtRp1042
(dp1043
g62
(dp1044
g82
g83
ssg71
g1038
sg64
(lp1045
S'is_pypy'
p1046
asbag57
(g78
g59
NtRp1047
(dp1048
g62
(dp1049
g89
g90
ssg71
g1038
sg64
(lp1050
S':'
asbag57
(g78
g59
NtRp1051
(dp1052
g62
(dp1053
sg71
g1038
sg64
(lp1054
g57
(g58
g59
NtRp1055
(dp1056
g62
(dp1057
g70
I4
ssg71
g1051
sg64
(lp1058
g100
asbasbasbag57
(g73
g59
NtRp1059
(dp1060
g62
(dp1061
sg71
g637
sg64
(lp1062
g57
(g78
g59
NtRp1063
(dp1064
g62
(dp1065
g82
g83
ssg71
g1059
sg64
(lp1066
S'path_info'
p1067
asbag57
(g78
g59
NtRp1068
(dp1069
g62
(dp1070
g89
g90
ssg71
g1059
sg64
(lp1071
S':'
asbag57
(g78
g59
NtRp1072
(dp1073
g62
(dp1074
sg71
g1059
sg64
(lp1075
g57
(g58
g59
NtRp1076
(dp1077
g62
(dp1078
g70
I4
ssg71
g1072
sg64
(lp1079
S'/makebrand/project/new'
p1080
asbasbasbag57
(g73
g59
NtRp1081
(dp1082
g62
(dp1083
sg71
g637
sg64
(lp1084
g57
(g78
g59
NtRp1085
(dp1086
g62
(dp1087
g82
g83
ssg71
g1081
sg64
(lp1088
S'query_string'
p1089
asbag57
(g78
g59
NtRp1090
(dp1091
g62
(dp1092
g89
g90
ssg71
g1081
sg64
(lp1093
S':'
asbag57
(g78
g59
NtRp1094
(dp1095
g62
(dp1096
sg71
g1081
sg64
(lp1097
g57
(g58
g59
NtRp1098
(dp1099
g62
(dp1100
g70
I4
ssg71
g1094
sg64
(lp1101
S''
asbasbasbag57
(g73
g59
NtRp1102
(dp1103
g62
(dp1104
sg71
g637
sg64
(lp1105
g57
(g78
g59
NtRp1106
(dp1107
g62
(dp1108
g82
g83
ssg71
g1102
sg64
(lp1109
S'remote_addr'
p1110
asbag57
(g78
g59
NtRp1111
(dp1112
g62
(dp1113
g89
g90
ssg71
g1102
sg64
(lp1114
S':'
asbag57
(g78
g59
NtRp1115
(dp1116
g62
(dp1117
sg71
g1102
sg64
(lp1118
g57
(g58
g59
NtRp1119
(dp1120
g62
(dp1121
g70
I4
ssg71
g1115
sg64
(lp1122
g190
asbasbasbag57
(g73
g59
NtRp1123
(dp1124
g62
(dp1125
sg71
g637
sg64
(lp1126
g57
(g78
g59
NtRp1127
(dp1128
g62
(dp1129
g82
g83
ssg71
g1123
sg64
(lp1130
S'remote_port'
p1131
asbag57
(g78
g59
NtRp1132
(dp1133
g62
(dp1134
g89
g90
ssg71
g1123
sg64
(lp1135
S':'
asbag57
(g78
g59
NtRp1136
(dp1137
g62
(dp1138
sg71
g1123
sg64
(lp1139
g57
(g58
g59
NtRp1140
(dp1141
g62
(dp1142
g70
I4
ssg71
g1136
sg64
(lp1143
S'54217'
p1144
asbasbasbag57
(g73
g59
NtRp1145
(dp1146
g62
(dp1147
sg71
g637
sg64
(lp1148
g57
(g78
g59
NtRp1149
(dp1150
g62
(dp1151
g82
g83
ssg71
g1145
sg64
(lp1152
S'request_method'
p1153
asbag57
(g78
g59
NtRp1154
(dp1155
g62
(dp1156
g89
g90
ssg71
g1145
sg64
(lp1157
S':'
asbag57
(g78
g59
NtRp1158
(dp1159
g62
(dp1160
sg71
g1145
sg64
(lp1161
g57
(g58
g59
NtRp1162
(dp1163
g62
(dp1164
g70
I4
ssg71
g1158
sg64
(lp1165
S'GET'
p1166
asbasbasbag57
(g73
g59
NtRp1167
(dp1168
g62
(dp1169
sg71
g637
sg64
(lp1170
g57
(g78
g59
NtRp1171
(dp1172
g62
(dp1173
g82
g83
ssg71
g1167
sg64
(lp1174
S'script_name'
p1175
asbag57
(g78
g59
NtRp1176
(dp1177
g62
(dp1178
g89
g90
ssg71
g1167
sg64
(lp1179
S':'
asbag57
(g78
g59
NtRp1180
(dp1181
g62
(dp1182
sg71
g1167
sg64
(lp1183
g57
(g58
g59
NtRp1184
(dp1185
g62
(dp1186
g70
I4
ssg71
g1180
sg64
(lp1187
S''
asbasbasbag57
(g73
g59
NtRp1188
(dp1189
g62
(dp1190
sg71
g637
sg64
(lp1191
g57
(g78
g59
NtRp1192
(dp1193
g62
(dp1194
g82
g83
ssg71
g1188
sg64
(lp1195
S'server_name'
p1196
asbag57
(g78
g59
NtRp1197
(dp1198
g62
(dp1199
g89
g90
ssg71
g1188
sg64
(lp1200
S':'
asbag57
(g78
g59
NtRp1201
(dp1202
g62
(dp1203
sg71
g1188
sg64
(lp1204
g57
(g58
g59
NtRp1205
(dp1206
g62
(dp1207
g70
I4
ssg71
g1201
sg64
(lp1208
S'ubuntu'
p1209
asbasbasbag57
(g73
g59
NtRp1210
(dp1211
g62
(dp1212
sg71
g637
sg64
(lp1213
g57
(g78
g59
NtRp1214
(dp1215
g62
(dp1216
g82
g83
ssg71
g1210
sg64
(lp1217
S'server_port'
p1218
asbag57
(g78
g59
NtRp1219
(dp1220
g62
(dp1221
g89
g90
ssg71
g1210
sg64
(lp1222
S':'
asbag57
(g78
g59
NtRp1223
(dp1224
g62
(dp1225
sg71
g1210
sg64
(lp1226
g57
(g58
g59
NtRp1227
(dp1228
g62
(dp1229
g70
I4
ssg71
g1223
sg64
(lp1230
S'8000'
p1231
asbasbasbag57
(g73
g59
NtRp1232
(dp1233
g62
(dp1234
sg71
g637
sg64
(lp1235
g57
(g78
g59
NtRp1236
(dp1237
g62
(dp1238
g82
g83
ssg71
g1232
sg64
(lp1239
S'server_protocol'
p1240
asbag57
(g78
g59
NtRp1241
(dp1242
g62
(dp1243
g89
g90
ssg71
g1232
sg64
(lp1244
S':'
asbag57
(g78
g59
NtRp1245
(dp1246
g62
(dp1247
sg71
g1232
sg64
(lp1248
g57
(g58
g59
NtRp1249
(dp1250
g62
(dp1251
g70
I4
ssg71
g1245
sg64
(lp1252
S'HTTP/1.1'
p1253
asbasbasbag57
(g73
g59
NtRp1254
(dp1255
g62
(dp1256
sg71
g637
sg64
(lp1257
g57
(g78
g59
NtRp1258
(dp1259
g62
(dp1260
g82
g83
ssg71
g1254
sg64
(lp1261
S'server_software'
p1262
asbag57
(g78
g59
NtRp1263
(dp1264
g62
(dp1265
g89
g90
ssg71
g1254
sg64
(lp1266
S':'
asbag57
(g78
g59
NtRp1267
(dp1268
g62
(dp1269
sg71
g1254
sg64
(lp1270
g57
(g58
g59
NtRp1271
(dp1272
g62
(dp1273
g70
I4
ssg71
g1267
sg64
(lp1274
S'Rocket 1.2.4'
p1275
asbasbasbag57
(g73
g59
NtRp1276
(dp1277
g62
(dp1278
sg71
g637
sg64
(lp1279
g57
(g78
g59
NtRp1280
(dp1281
g62
(dp1282
g82
g83
ssg71
g1276
sg64
(lp1283
S'web2py_crontype'
p1284
asbag57
(g78
g59
NtRp1285
(dp1286
g62
(dp1287
g89
g90
ssg71
g1276
sg64
(lp1288
S':'
asbag57
(g78
g59
NtRp1289
(dp1290
g62
(dp1291
sg71
g1276
sg64
(lp1292
g57
(g58
g59
NtRp1293
(dp1294
g62
(dp1295
g70
I4
ssg71
g1289
sg64
(lp1296
S'hard'
p1297
asbasbasbag57
(g73
g59
NtRp1298
(dp1299
g62
(dp1300
sg71
g637
sg64
(lp1301
g57
(g78
g59
NtRp1302
(dp1303
g62
(dp1304
g82
g83
ssg71
g1298
sg64
(lp1305
S'web2py_path'
p1306
asbag57
(g78
g59
NtRp1307
(dp1308
g62
(dp1309
g89
g90
ssg71
g1298
sg64
(lp1310
S':'
asbag57
(g78
g59
NtRp1311
(dp1312
g62
(dp1313
sg71
g1298
sg64
(lp1314
g57
(g58
g59
NtRp1315
(dp1316
g62
(dp1317
g70
I4
ssg71
g1311
sg64
(lp1318
g684
asbasbasbag57
(g73
g59
NtRp1319
(dp1320
g62
(dp1321
sg71
g637
sg64
(lp1322
g57
(g78
g59
NtRp1323
(dp1324
g62
(dp1325
g82
g83
ssg71
g1319
sg64
(lp1326
S'web2py_version'
p1327
asbag57
(g78
g59
NtRp1328
(dp1329
g62
(dp1330
g89
g90
ssg71
g1319
sg64
(lp1331
S':'
asbag57
(g78
g59
NtRp1332
(dp1333
g62
(dp1334
sg71
g1319
sg64
(lp1335
g57
(g58
g59
NtRp1336
(dp1337
g62
(dp1338
g70
I4
ssg71
g1332
sg64
(lp1339
g57
(g66
g59
NtRp1340
(dp1341
g62
(dp1342
g70
I3
ssg71
Nsg64
(lp1343
g57
(g73
g59
NtRp1344
(dp1345
g62
(dp1346
sg71
g1340
sg64
(lp1347
g57
(g78
g59
NtRp1348
(dp1349
g62
(dp1350
sg71
g1344
sg64
(lp1351
g57
(g58
g59
NtRp1352
(dp1353
g62
(dp1354
g70
I3
ssg71
g1348
sg64
(lp1355
S'1'
asbasbasbag57
(g73
g59
NtRp1356
(dp1357
g62
(dp1358
sg71
g1340
sg64
(lp1359
g57
(g78
g59
NtRp1360
(dp1361
g62
(dp1362
sg71
g1356
sg64
(lp1363
g57
(g58
g59
NtRp1364
(dp1365
g62
(dp1366
g70
I3
ssg71
g1360
sg64
(lp1367
S'99'
p1368
asbasbasbag57
(g73
g59
NtRp1369
(dp1370
g62
(dp1371
sg71
g1340
sg64
(lp1372
g57
(g78
g59
NtRp1373
(dp1374
g62
(dp1375
sg71
g1369
sg64
(lp1376
g57
(g58
g59
NtRp1377
(dp1378
g62
(dp1379
g70
I3
ssg71
g1373
sg64
(lp1380
S'4'
asbasbasbag57
(g73
g59
NtRp1381
(dp1382
g62
(dp1383
sg71
g1340
sg64
(lp1384
g57
(g78
g59
NtRp1385
(dp1386
g62
(dp1387
sg71
g1381
sg64
(lp1388
g57
(g58
g59
NtRp1389
(dp1390
g62
(dp1391
g70
I3
ssg71
g1385
sg64
(lp1392
S'datetime.datetime(2011, 12, 14, 14, 46, 14)'
p1393
asbasbasbag57
(g73
g59
NtRp1394
(dp1395
g62
(dp1396
sg71
g1340
sg64
(lp1397
g57
(g78
g59
NtRp1398
(dp1399
g62
(dp1400
sg71
g1394
sg64
(lp1401
g57
(g58
g59
NtRp1402
(dp1403
g62
(dp1404
g70
I3
ssg71
g1398
sg64
(lp1405
S'stable'
p1406
asbasbasbasbasbasbasbag57
(g73
g59
NtRp1407
(dp1408
g62
(dp1409
sg71
g637
sg64
(lp1410
g57
(g78
g59
NtRp1411
(dp1412
g62
(dp1413
g82
g83
ssg71
g1407
sg64
(lp1414
S'wsgi_errors'
p1415
asbag57
(g78
g59
NtRp1416
(dp1417
g62
(dp1418
g89
g90
ssg71
g1407
sg64
(lp1419
S':'
asbag57
(g78
g59
NtRp1420
(dp1421
g62
(dp1422
sg71
g1407
sg64
(lp1423
g57
(g58
g59
NtRp1424
(dp1425
g62
(dp1426
g70
I4
ssg71
g1420
sg64
(lp1427
S"<open file '<stderr>', mode 'w' at 0xb73090d0>"
p1428
asbasbasbag57
(g73
g59
NtRp1429
(dp1430
g62
(dp1431
sg71
g637
sg64
(lp1432
g57
(g78
g59
NtRp1433
(dp1434
g62
(dp1435
g82
g83
ssg71
g1429
sg64
(lp1436
S'wsgi_file_wrapper'
p1437
asbag57
(g78
g59
NtRp1438
(dp1439
g62
(dp1440
g89
g90
ssg71
g1429
sg64
(lp1441
S':'
asbag57
(g78
g59
NtRp1442
(dp1443
g62
(dp1444
sg71
g1429
sg64
(lp1445
g57
(g58
g59
NtRp1446
(dp1447
g62
(dp1448
g70
I4
ssg71
g1442
sg64
(lp1449
S'<class wsgiref.util.FileWrapper at 0x8ce620c>'
p1450
asbasbasbag57
(g73
g59
NtRp1451
(dp1452
g62
(dp1453
sg71
g637
sg64
(lp1454
g57
(g78
g59
NtRp1455
(dp1456
g62
(dp1457
g82
g83
ssg71
g1451
sg64
(lp1458
S'wsgi_input'
p1459
asbag57
(g78
g59
NtRp1460
(dp1461
g62
(dp1462
g89
g90
ssg71
g1451
sg64
(lp1463
S':'
asbag57
(g78
g59
NtRp1464
(dp1465
g62
(dp1466
sg71
g1451
sg64
(lp1467
g57
(g58
g59
NtRp1468
(dp1469
g62
(dp1470
g70
I4
ssg71
g1464
sg64
(lp1471
S'<socket._fileobject object at 0x8da74ac>'
p1472
asbasbasbag57
(g73
g59
NtRp1473
(dp1474
g62
(dp1475
sg71
g637
sg64
(lp1476
g57
(g78
g59
NtRp1477
(dp1478
g62
(dp1479
g82
g83
ssg71
g1473
sg64
(lp1480
S'wsgi_multiprocess'
p1481
asbag57
(g78
g59
NtRp1482
(dp1483
g62
(dp1484
g89
g90
ssg71
g1473
sg64
(lp1485
S':'
asbag57
(g78
g59
NtRp1486
(dp1487
g62
(dp1488
sg71
g1473
sg64
(lp1489
g57
(g58
g59
NtRp1490
(dp1491
g62
(dp1492
g70
I4
ssg71
g1486
sg64
(lp1493
g100
asbasbasbag57
(g73
g59
NtRp1494
(dp1495
g62
(dp1496
sg71
g637
sg64
(lp1497
g57
(g78
g59
NtRp1498
(dp1499
g62
(dp1500
g82
g83
ssg71
g1494
sg64
(lp1501
S'wsgi_multithread'
p1502
asbag57
(g78
g59
NtRp1503
(dp1504
g62
(dp1505
g89
g90
ssg71
g1494
sg64
(lp1506
S':'
asbag57
(g78
g59
NtRp1507
(dp1508
g62
(dp1509
sg71
g1494
sg64
(lp1510
g57
(g58
g59
NtRp1511
(dp1512
g62
(dp1513
g70
I4
ssg71
g1507
sg64
(lp1514
S'True'
p1515
asbasbasbag57
(g73
g59
NtRp1516
(dp1517
g62
(dp1518
sg71
g637
sg64
(lp1519
g57
(g78
g59
NtRp1520
(dp1521
g62
(dp1522
g82
g83
ssg71
g1516
sg64
(lp1523
S'wsgi_run_once'
p1524
asbag57
(g78
g59
NtRp1525
(dp1526
g62
(dp1527
g89
g90
ssg71
g1516
sg64
(lp1528
S':'
asbag57
(g78
g59
NtRp1529
(dp1530
g62
(dp1531
sg71
g1516
sg64
(lp1532
g57
(g58
g59
NtRp1533
(dp1534
g62
(dp1535
g70
I4
ssg71
g1529
sg64
(lp1536
g100
asbasbasbag57
(g73
g59
NtRp1537
(dp1538
g62
(dp1539
sg71
g637
sg64
(lp1540
g57
(g78
g59
NtRp1541
(dp1542
g62
(dp1543
g82
g83
ssg71
g1537
sg64
(lp1544
S'wsgi_url_scheme'
p1545
asbag57
(g78
g59
NtRp1546
(dp1547
g62
(dp1548
g89
g90
ssg71
g1537
sg64
(lp1549
S':'
asbag57
(g78
g59
NtRp1550
(dp1551
g62
(dp1552
sg71
g1537
sg64
(lp1553
g57
(g58
g59
NtRp1554
(dp1555
g62
(dp1556
g70
I4
ssg71
g1550
sg64
(lp1557
S'http'
p1558
asbasbasbag57
(g73
g59
NtRp1559
(dp1560
g62
(dp1561
sg71
g637
sg64
(lp1562
g57
(g78
g59
NtRp1563
(dp1564
g62
(dp1565
g82
g83
ssg71
g1559
sg64
(lp1566
S'wsgi_version'
p1567
asbag57
(g78
g59
NtRp1568
(dp1569
g62
(dp1570
g89
g90
ssg71
g1559
sg64
(lp1571
S':'
asbag57
(g78
g59
NtRp1572
(dp1573
g62
(dp1574
sg71
g1559
sg64
(lp1575
g57
(g58
g59
NtRp1576
(dp1577
g62
(dp1578
g70
I4
ssg71
g1572
sg64
(lp1579
g57
(g66
g59
NtRp1580
(dp1581
g62
(dp1582
g70
I3
ssg71
Nsg64
(lp1583
g57
(g73
g59
NtRp1584
(dp1585
g62
(dp1586
sg71
g1580
sg64
(lp1587
g57
(g78
g59
NtRp1588
(dp1589
g62
(dp1590
sg71
g1584
sg64
(lp1591
g57
(g58
g59
NtRp1592
(dp1593
g62
(dp1594
g70
I3
ssg71
g1588
sg64
(lp1595
S'1'
asbasbasbag57
(g73
g59
NtRp1596
(dp1597
g62
(dp1598
sg71
g1580
sg64
(lp1599
g57
(g78
g59
NtRp1600
(dp1601
g62
(dp1602
sg71
g1596
sg64
(lp1603
g57
(g58
g59
NtRp1604
(dp1605
g62
(dp1606
g70
I3
ssg71
g1600
sg64
(lp1607
S'0'
asbasbasbasbasbasbasbasbasbasbasbag57
(g73
g59
NtRp1608
(dp1609
g62
(dp1610
sg71
g67
sg64
(lp1611
g57
(g78
g59
NtRp1612
(dp1613
g62
(dp1614
g82
g83
ssg71
g1608
sg64
(lp1615
S'extension'
p1616
asbag57
(g78
g59
NtRp1617
(dp1618
g62
(dp1619
g89
g90
ssg71
g1608
sg64
(lp1620
S':'
asbag57
(g78
g59
NtRp1621
(dp1622
g62
(dp1623
sg71
g1608
sg64
(lp1624
g57
(g58
g59
NtRp1625
(dp1626
g62
(dp1627
g70
I5
ssg71
g1621
sg64
(lp1628
S'html'
p1629
asbasbasbag57
(g73
g59
NtRp1630
(dp1631
g62
(dp1632
sg71
g67
sg64
(lp1633
g57
(g78
g59
NtRp1634
(dp1635
g62
(dp1636
g82
g83
ssg71
g1630
sg64
(lp1637
S'folder'
p1638
asbag57
(g78
g59
NtRp1639
(dp1640
g62
(dp1641
g89
g90
ssg71
g1630
sg64
(lp1642
S':'
asbag57
(g78
g59
NtRp1643
(dp1644
g62
(dp1645
sg71
g1630
sg64
(lp1646
g57
(g58
g59
NtRp1647
(dp1648
g62
(dp1649
g70
I5
ssg71
g1643
sg64
(lp1650
S'/home/kaique/Projects/WebApps/web2py/applications/makebrand/'
p1651
asbasbasbag57
(g73
g59
NtRp1652
(dp1653
g62
(dp1654
sg71
g67
sg64
(lp1655
g57
(g78
g59
NtRp1656
(dp1657
g62
(dp1658
g82
g83
ssg71
g1652
sg64
(lp1659
S'function'
p1660
asbag57
(g78
g59
NtRp1661
(dp1662
g62
(dp1663
g89
g90
ssg71
g1652
sg64
(lp1664
S':'
asbag57
(g78
g59
NtRp1665
(dp1666
g62
(dp1667
sg71
g1652
sg64
(lp1668
g57
(g58
g59
NtRp1669
(dp1670
g62
(dp1671
g70
I5
ssg71
g1665
sg64
(lp1672
S'new'
p1673
asbasbasbag57
(g73
g59
NtRp1674
(dp1675
g62
(dp1676
sg71
g67
sg64
(lp1677
g57
(g78
g59
NtRp1678
(dp1679
g62
(dp1680
g82
g83
ssg71
g1674
sg64
(lp1681
S'get_vars'
p1682
asbag57
(g78
g59
NtRp1683
(dp1684
g62
(dp1685
g89
g90
ssg71
g1674
sg64
(lp1686
S':'
asbag57
(g78
g59
NtRp1687
(dp1688
g62
(dp1689
sg71
g1674
sg64
(lp1690
g57
(g58
g59
NtRp1691
(dp1692
g62
(dp1693
g70
I5
ssg71
g1687
sg64
(lp1694
g57
(g66
g59
NtRp1695
(dp1696
g62
(dp1697
g70
I4
ssg71
Nsg64
(lp1698
sbasbasbasbag57
(g73
g59
NtRp1699
(dp1700
g62
(dp1701
sg71
g67
sg64
(lp1702
g57
(g78
g59
NtRp1703
(dp1704
g62
(dp1705
g82
g83
ssg71
g1699
sg64
(lp1706
S'global_settings'
p1707
asbag57
(g78
g59
NtRp1708
(dp1709
g62
(dp1710
g89
g90
ssg71
g1699
sg64
(lp1711
S':'
asbag57
(g78
g59
NtRp1712
(dp1713
g62
(dp1714
sg71
g1699
sg64
(lp1715
g57
(g58
g59
NtRp1716
(dp1717
g62
(dp1718
g70
I5
ssg71
g1712
sg64
(lp1719
g57
(g66
g59
NtRp1720
(dp1721
g62
(dp1722
g70
I4
ssg71
Nsg64
(lp1723
g57
(g73
g59
NtRp1724
(dp1725
g62
(dp1726
sg71
g1720
sg64
(lp1727
g57
(g78
g59
NtRp1728
(dp1729
g62
(dp1730
g82
g83
ssg71
g1724
sg64
(lp1731
g649
asbag57
(g78
g59
NtRp1732
(dp1733
g62
(dp1734
g89
g90
ssg71
g1724
sg64
(lp1735
S':'
asbag57
(g78
g59
NtRp1736
(dp1737
g62
(dp1738
sg71
g1724
sg64
(lp1739
g57
(g58
g59
NtRp1740
(dp1741
g62
(dp1742
g70
I4
ssg71
g1736
sg64
(lp1743
S"set(['/home/kaique/Projects/WebApps/web2py/applications/makebrand/', '/home/kaique/Projects/WebApps/web2py/applications/admin/'])"
p1744
asbasbasbag57
(g73
g59
NtRp1745
(dp1746
g62
(dp1747
sg71
g1720
sg64
(lp1748
g57
(g78
g59
NtRp1749
(dp1750
g62
(dp1751
g82
g83
ssg71
g1745
sg64
(lp1752
g671
asbag57
(g78
g59
NtRp1753
(dp1754
g62
(dp1755
g89
g90
ssg71
g1745
sg64
(lp1756
S':'
asbag57
(g78
g59
NtRp1757
(dp1758
g62
(dp1759
sg71
g1745
sg64
(lp1760
g57
(g58
g59
NtRp1761
(dp1762
g62
(dp1763
g70
I4
ssg71
g1757
sg64
(lp1764
g684
asbasbasbag57
(g73
g59
NtRp1765
(dp1766
g62
(dp1767
sg71
g1720
sg64
(lp1768
g57
(g78
g59
NtRp1769
(dp1770
g62
(dp1771
g82
g83
ssg71
g1765
sg64
(lp1772
g693
asbag57
(g78
g59
NtRp1773
(dp1774
g62
(dp1775
g89
g90
ssg71
g1765
sg64
(lp1776
S':'
asbag57
(g78
g59
NtRp1777
(dp1778
g62
(dp1779
sg71
g1765
sg64
(lp1780
g57
(g58
g59
NtRp1781
(dp1782
g62
(dp1783
g70
I4
ssg71
g1777
sg64
(lp1784
g57
(g66
g59
NtRp1785
(dp1786
g62
(dp1787
g70
I3
ssg71
Nsg64
(lp1788
sbasbasbasbag57
(g73
g59
NtRp1789
(dp1790
g62
(dp1791
sg71
g1720
sg64
(lp1792
g57
(g78
g59
NtRp1793
(dp1794
g62
(dp1795
g82
g83
ssg71
g1789
sg64
(lp1796
g718
asbag57
(g78
g59
NtRp1797
(dp1798
g62
(dp1799
g89
g90
ssg71
g1789
sg64
(lp1800
S':'
asbag57
(g78
g59
NtRp1801
(dp1802
g62
(dp1803
sg71
g1789
sg64
(lp1804
g57
(g58
g59
NtRp1805
(dp1806
g62
(dp1807
g70
I4
ssg71
g1801
sg64
(lp1808
S"<Values at 0x8d357ec: {'verbose': False, 'ip': '127.0.0.1', 'shutdown_timeout': 5, 'taskbar': False, 'nocron': False, 'pid_filename': 'httpserver.pid', 'maxthreads': None, 'softcron': False, 'server_name': 'ubuntu', 'bpython': False, 'nogui': False, 'port': 8000, 'extcron': False, 'debuglevel': 30, 'test': None, 'folder': '/home/kaique/Projects/WebApps/web2py', 'config': '', 'import_models': False, 'winservice': '', 'shell': None, 'run': '', 'log_filename': 'httpserver.log', 'args': [''], 'socket_timeout': 1, 'ssl_ca_certificate': None, 'scheduler': None, 'profiler_filename': None, 'ssl_private_key': '', 'password': 'dev', 'request_queue_size': 5, 'ssl_certificate': '', 'cronjob': False, 'numthreads': None, 'quiet': False, 'interfaces': None, 'minthreads': None, 'timeout': 10, 'plain': False, 'nobanner': False}>"
p1809
asbasbasbag57
(g73
g59
NtRp1810
(dp1811
g62
(dp1812
sg71
g1720
sg64
(lp1813
g57
(g78
g59
NtRp1814
(dp1815
g62
(dp1816
g82
g83
ssg71
g1810
sg64
(lp1817
g740
asbag57
(g78
g59
NtRp1818
(dp1819
g62
(dp1820
g89
g90
ssg71
g1810
sg64
(lp1821
S':'
asbag57
(g78
g59
NtRp1822
(dp1823
g62
(dp1824
sg71
g1810
sg64
(lp1825
g57
(g58
g59
NtRp1826
(dp1827
g62
(dp1828
g70
I4
ssg71
g1822
sg64
(lp1829
S'set([])'
p1830
asbasbasbag57
(g73
g59
NtRp1831
(dp1832
g62
(dp1833
sg71
g1720
sg64
(lp1834
g57
(g78
g59
NtRp1835
(dp1836
g62
(dp1837
g82
g83
ssg71
g1831
sg64
(lp1838
g762
asbag57
(g78
g59
NtRp1839
(dp1840
g62
(dp1841
g89
g90
ssg71
g1831
sg64
(lp1842
S':'
asbag57
(g78
g59
NtRp1843
(dp1844
g62
(dp1845
sg71
g1831
sg64
(lp1846
g57
(g58
g59
NtRp1847
(dp1848
g62
(dp1849
g70
I4
ssg71
g1843
sg64
(lp1850
g100
asbasbasbag57
(g73
g59
NtRp1851
(dp1852
g62
(dp1853
sg71
g1720
sg64
(lp1854
g57
(g78
g59
NtRp1855
(dp1856
g62
(dp1857
g82
g83
ssg71
g1851
sg64
(lp1858
g783
asbag57
(g78
g59
NtRp1859
(dp1860
g62
(dp1861
g89
g90
ssg71
g1851
sg64
(lp1862
S':'
asbag57
(g78
g59
NtRp1863
(dp1864
g62
(dp1865
sg71
g1851
sg64
(lp1866
g57
(g58
g59
NtRp1867
(dp1868
g62
(dp1869
g70
I4
ssg71
g1863
sg64
(lp1870
g796
asbasbasbag57
(g73
g59
NtRp1871
(dp1872
g62
(dp1873
sg71
g1720
sg64
(lp1874
g57
(g78
g59
NtRp1875
(dp1876
g62
(dp1877
g82
g83
ssg71
g1871
sg64
(lp1878
g1025
asbag57
(g78
g59
NtRp1879
(dp1880
g62
(dp1881
g89
g90
ssg71
g1871
sg64
(lp1882
S':'
asbag57
(g78
g59
NtRp1883
(dp1884
g62
(dp1885
sg71
g1871
sg64
(lp1886
g57
(g58
g59
NtRp1887
(dp1888
g62
(dp1889
g70
I4
ssg71
g1883
sg64
(lp1890
g100
asbasbasbag57
(g73
g59
NtRp1891
(dp1892
g62
(dp1893
sg71
g1720
sg64
(lp1894
g57
(g78
g59
NtRp1895
(dp1896
g62
(dp1897
g82
g83
ssg71
g1891
sg64
(lp1898
g1046
asbag57
(g78
g59
NtRp1899
(dp1900
g62
(dp1901
g89
g90
ssg71
g1891
sg64
(lp1902
S':'
asbag57
(g78
g59
NtRp1903
(dp1904
g62
(dp1905
sg71
g1891
sg64
(lp1906
g57
(g58
g59
NtRp1907
(dp1908
g62
(dp1909
g70
I4
ssg71
g1903
sg64
(lp1910
g100
asbasbasbag57
(g73
g59
NtRp1911
(dp1912
g62
(dp1913
sg71
g1720
sg64
(lp1914
g57
(g78
g59
NtRp1915
(dp1916
g62
(dp1917
g82
g83
ssg71
g1911
sg64
(lp1918
g1284
asbag57
(g78
g59
NtRp1919
(dp1920
g62
(dp1921
g89
g90
ssg71
g1911
sg64
(lp1922
S':'
asbag57
(g78
g59
NtRp1923
(dp1924
g62
(dp1925
sg71
g1911
sg64
(lp1926
g57
(g58
g59
NtRp1927
(dp1928
g62
(dp1929
g70
I4
ssg71
g1923
sg64
(lp1930
g1297
asbasbasbag57
(g73
g59
NtRp1931
(dp1932
g62
(dp1933
sg71
g1720
sg64
(lp1934
g57
(g78
g59
NtRp1935
(dp1936
g62
(dp1937
g82
g83
ssg71
g1931
sg64
(lp1938
g1327
asbag57
(g78
g59
NtRp1939
(dp1940
g62
(dp1941
g89
g90
ssg71
g1931
sg64
(lp1942
S':'
asbag57
(g78
g59
NtRp1943
(dp1944
g62
(dp1945
sg71
g1931
sg64
(lp1946
g57
(g58
g59
NtRp1947
(dp1948
g62
(dp1949
g70
I4
ssg71
g1943
sg64
(lp1950
g57
(g66
g59
NtRp1951
(dp1952
g62
(dp1953
g70
I3
ssg71
Nsg64
(lp1954
g57
(g73
g59
NtRp1955
(dp1956
g62
(dp1957
sg71
g1951
sg64
(lp1958
g57
(g78
g59
NtRp1959
(dp1960
g62
(dp1961
sg71
g1955
sg64
(lp1962
g57
(g58
g59
NtRp1963
(dp1964
g62
(dp1965
g70
I3
ssg71
g1959
sg64
(lp1966
S'1'
asbasbasbag57
(g73
g59
NtRp1967
(dp1968
g62
(dp1969
sg71
g1951
sg64
(lp1970
g57
(g78
g59
NtRp1971
(dp1972
g62
(dp1973
sg71
g1967
sg64
(lp1974
g57
(g58
g59
NtRp1975
(dp1976
g62
(dp1977
g70
I3
ssg71
g1971
sg64
(lp1978
S'99'
p1979
asbasbasbag57
(g73
g59
NtRp1980
(dp1981
g62
(dp1982
sg71
g1951
sg64
(lp1983
g57
(g78
g59
NtRp1984
(dp1985
g62
(dp1986
sg71
g1980
sg64
(lp1987
g57
(g58
g59
NtRp1988
(dp1989
g62
(dp1990
g70
I3
ssg71
g1984
sg64
(lp1991
S'4'
asbasbasbag57
(g73
g59
NtRp1992
(dp1993
g62
(dp1994
sg71
g1951
sg64
(lp1995
g57
(g78
g59
NtRp1996
(dp1997
g62
(dp1998
sg71
g1992
sg64
(lp1999
g57
(g58
g59
NtRp2000
(dp2001
g62
(dp2002
g70
I3
ssg71
g1996
sg64
(lp2003
S'datetime.datetime(2011, 12, 14, 14, 46, 14)'
p2004
asbasbasbag57
(g73
g59
NtRp2005
(dp2006
g62
(dp2007
sg71
g1951
sg64
(lp2008
g57
(g78
g59
NtRp2009
(dp2010
g62
(dp2011
sg71
g2005
sg64
(lp2012
g57
(g58
g59
NtRp2013
(dp2014
g62
(dp2015
g70
I3
ssg71
g2009
sg64
(lp2016
g1406
asbasbasbasbasbasbasbasbasbasbasbag57
(g73
g59
NtRp2017
(dp2018
g62
(dp2019
sg71
g67
sg64
(lp2020
g57
(g78
g59
NtRp2021
(dp2022
g62
(dp2023
g82
g83
ssg71
g2017
sg64
(lp2024
S'is_https'
p2025
asbag57
(g78
g59
NtRp2026
(dp2027
g62
(dp2028
g89
g90
ssg71
g2017
sg64
(lp2029
S':'
asbag57
(g78
g59
NtRp2030
(dp2031
g62
(dp2032
sg71
g2017
sg64
(lp2033
g57
(g58
g59
NtRp2034
(dp2035
g62
(dp2036
g70
I5
ssg71
g2030
sg64
(lp2037
g100
asbasbasbag57
(g73
g59
NtRp2038
(dp2039
g62
(dp2040
sg71
g67
sg64
(lp2041
g57
(g78
g59
NtRp2042
(dp2043
g62
(dp2044
g82
g83
ssg71
g2038
sg64
(lp2045
S'is_local'
p2046
asbag57
(g78
g59
NtRp2047
(dp2048
g62
(dp2049
g89
g90
ssg71
g2038
sg64
(lp2050
S':'
asbag57
(g78
g59
NtRp2051
(dp2052
g62
(dp2053
sg71
g2038
sg64
(lp2054
g57
(g58
g59
NtRp2055
(dp2056
g62
(dp2057
g70
I5
ssg71
g2051
sg64
(lp2058
g1515
asbasbasbag57
(g73
g59
NtRp2059
(dp2060
g62
(dp2061
sg71
g67
sg64
(lp2062
g57
(g78
g59
NtRp2063
(dp2064
g62
(dp2065
g82
g83
ssg71
g2059
sg64
(lp2066
S'is_restful'
p2067
asbag57
(g78
g59
NtRp2068
(dp2069
g62
(dp2070
g89
g90
ssg71
g2059
sg64
(lp2071
S':'
asbag57
(g78
g59
NtRp2072
(dp2073
g62
(dp2074
sg71
g2059
sg64
(lp2075
g57
(g58
g59
NtRp2076
(dp2077
g62
(dp2078
g70
I5
ssg71
g2072
sg64
(lp2079
g100
asbasbasbag57
(g73
g59
NtRp2080
(dp2081
g62
(dp2082
sg71
g67
sg64
(lp2083
g57
(g78
g59
NtRp2084
(dp2085
g62
(dp2086
g82
g83
ssg71
g2080
sg64
(lp2087
S'now'
p2088
asbag57
(g78
g59
NtRp2089
(dp2090
g62
(dp2091
g89
g90
ssg71
g2080
sg64
(lp2092
S':'
asbag57
(g78
g59
NtRp2093
(dp2094
g62
(dp2095
sg71
g2080
sg64
(lp2096
g57
(g58
g59
NtRp2097
(dp2098
g62
(dp2099
g70
I5
ssg71
g2093
sg64
(lp2100
S'datetime.datetime(2012, 2, 1, 17, 39, 24, 661426)'
p2101
asbasbasbag57
(g73
g59
NtRp2102
(dp2103
g62
(dp2104
sg71
g67
sg64
(lp2105
g57
(g78
g59
NtRp2106
(dp2107
g62
(dp2108
g82
g83
ssg71
g2102
sg64
(lp2109
S'post_vars'
p2110
asbag57
(g78
g59
NtRp2111
(dp2112
g62
(dp2113
g89
g90
ssg71
g2102
sg64
(lp2114
S':'
asbag57
(g78
g59
NtRp2115
(dp2116
g62
(dp2117
sg71
g2102
sg64
(lp2118
g57
(g58
g59
NtRp2119
(dp2120
g62
(dp2121
g70
I5
ssg71
g2115
sg64
(lp2122
g57
(g66
g59
NtRp2123
(dp2124
g62
(dp2125
g70
I4
ssg71
Nsg64
(lp2126
sbasbasbasbag57
(g73
g59
NtRp2127
(dp2128
g62
(dp2129
sg71
g67
sg64
(lp2130
g57
(g78
g59
NtRp2131
(dp2132
g62
(dp2133
g82
g83
ssg71
g2127
sg64
(lp2134
S'url'
p2135
asbag57
(g78
g59
NtRp2136
(dp2137
g62
(dp2138
g89
g90
ssg71
g2127
sg64
(lp2139
S':'
asbag57
(g78
g59
NtRp2140
(dp2141
g62
(dp2142
sg71
g2127
sg64
(lp2143
g57
(g58
g59
NtRp2144
(dp2145
g62
(dp2146
g70
I5
ssg71
g2140
sg64
(lp2147
S'/makebrand/project/new'
p2148
asbasbasbag57
(g73
g59
NtRp2149
(dp2150
g62
(dp2151
sg71
g67
sg64
(lp2152
g57
(g78
g59
NtRp2153
(dp2154
g62
(dp2155
g82
g83
ssg71
g2149
sg64
(lp2156
S'utcnow'
p2157
asbag57
(g78
g59
NtRp2158
(dp2159
g62
(dp2160
g89
g90
ssg71
g2149
sg64
(lp2161
S':'
asbag57
(g78
g59
NtRp2162
(dp2163
g62
(dp2164
sg71
g2149
sg64
(lp2165
g57
(g58
g59
NtRp2166
(dp2167
g62
(dp2168
g70
I5
ssg71
g2162
sg64
(lp2169
S'datetime.datetime(2012, 2, 1, 19, 39, 24, 661448)'
p2170
asbasbasbag57
(g73
g59
NtRp2171
(dp2172
g62
(dp2173
sg71
g67
sg64
(lp2174
g57
(g78
g59
NtRp2175
(dp2176
g62
(dp2177
g82
g83
ssg71
g2171
sg64
(lp2178
S'uuid'
p2179
asbag57
(g78
g59
NtRp2180
(dp2181
g62
(dp2182
g89
g90
ssg71
g2171
sg64
(lp2183
S':'
asbag57
(g78
g59
NtRp2184
(dp2185
g62
(dp2186
sg71
g2171
sg64
(lp2187
g57
(g58
g59
NtRp2188
(dp2189
g62
(dp2190
g70
I5
ssg71
g2184
sg64
(lp2191
S'makebrand/127.0.0.1.2012-02-01.17-39-24.3023b72a-00a7-42c5-82ce-5e5ab05f5385'
p2192
asbasbasbag57
(g73
g59
NtRp2193
(dp2194
g62
(dp2195
sg71
g67
sg64
(lp2196
g57
(g78
g59
NtRp2197
(dp2198
g62
(dp2199
g82
g83
ssg71
g2193
sg64
(lp2200
S'vars'
p2201
asbag57
(g78
g59
NtRp2202
(dp2203
g62
(dp2204
g89
g90
ssg71
g2193
sg64
(lp2205
S':'
asbag57
(g78
g59
NtRp2206
(dp2207
g62
(dp2208
sg71
g2193
sg64
(lp2209
g57
(g58
g59
NtRp2210
(dp2211
g62
(dp2212
g70
I5
ssg71
g2206
sg64
(lp2213
g57
(g66
g59
NtRp2214
(dp2215
g62
(dp2216
g70
I4
ssg71
Nsg64
(lp2217
sbasbasbasbag57
(g73
g59
NtRp2218
(dp2219
g62
(dp2220
sg71
g67
sg64
(lp2221
g57
(g78
g59
NtRp2222
(dp2223
g62
(dp2224
g82
g83
ssg71
g2218
sg64
(lp2225
S'wsgi'
p2226
asbag57
(g78
g59
NtRp2227
(dp2228
g62
(dp2229
g89
g90
ssg71
g2218
sg64
(lp2230
S':'
asbag57
(g78
g59
NtRp2231
(dp2232
g62
(dp2233
sg71
g2218
sg64
(lp2234
g57
(g58
g59
NtRp2235
(dp2236
g62
(dp2237
g70
I5
ssg71
g2231
sg64
(lp2238
g57
(g66
g59
NtRp2239
(dp2240
g62
(dp2241
g70
I4
ssg71
Nsg64
(lp2242
g57
(g73
g59
NtRp2243
(dp2244
g62
(dp2245
sg71
g2239
sg64
(lp2246
g57
(g78
g59
NtRp2247
(dp2248
g62
(dp2249
g82
g83
ssg71
g2243
sg64
(lp2250
S'environ'
p2251
asbag57
(g78
g59
NtRp2252
(dp2253
g62
(dp2254
g89
g90
ssg71
g2243
sg64
(lp2255
S':'
asbag57
(g78
g59
NtRp2256
(dp2257
g62
(dp2258
sg71
g2243
sg64
(lp2259
g57
(g58
g59
NtRp2260
(dp2261
g62
(dp2262
g70
I4
ssg71
g2256
sg64
(lp2263
g57
(g66
g59
NtRp2264
(dp2265
g62
(dp2266
g70
I3
ssg71
Nsg64
(lp2267
g57
(g73
g59
NtRp2268
(dp2269
g62
(dp2270
sg71
g2264
sg64
(lp2271
g57
(g78
g59
NtRp2272
(dp2273
g62
(dp2274
g82
g83
ssg71
g2268
sg64
(lp2275
S'HTTP_ACCEPT'
p2276
asbag57
(g78
g59
NtRp2277
(dp2278
g62
(dp2279
g89
g90
ssg71
g2268
sg64
(lp2280
S':'
asbag57
(g78
g59
NtRp2281
(dp2282
g62
(dp2283
sg71
g2268
sg64
(lp2284
g57
(g58
g59
NtRp2285
(dp2286
g62
(dp2287
g70
I3
ssg71
g2281
sg64
(lp2288
g818
asbasbasbag57
(g73
g59
NtRp2289
(dp2290
g62
(dp2291
sg71
g2264
sg64
(lp2292
g57
(g78
g59
NtRp2293
(dp2294
g62
(dp2295
g82
g83
ssg71
g2289
sg64
(lp2296
S'HTTP_ACCEPT_CHARSET'
p2297
asbag57
(g78
g59
NtRp2298
(dp2299
g62
(dp2300
g89
g90
ssg71
g2289
sg64
(lp2301
S':'
asbag57
(g78
g59
NtRp2302
(dp2303
g62
(dp2304
sg71
g2289
sg64
(lp2305
g57
(g58
g59
NtRp2306
(dp2307
g62
(dp2308
g70
I3
ssg71
g2302
sg64
(lp2309
g840
asbasbasbag57
(g73
g59
NtRp2310
(dp2311
g62
(dp2312
sg71
g2264
sg64
(lp2313
g57
(g78
g59
NtRp2314
(dp2315
g62
(dp2316
g82
g83
ssg71
g2310
sg64
(lp2317
S'HTTP_ACCEPT_ENCODING'
p2318
asbag57
(g78
g59
NtRp2319
(dp2320
g62
(dp2321
g89
g90
ssg71
g2310
sg64
(lp2322
S':'
asbag57
(g78
g59
NtRp2323
(dp2324
g62
(dp2325
sg71
g2310
sg64
(lp2326
g57
(g58
g59
NtRp2327
(dp2328
g62
(dp2329
g70
I3
ssg71
g2323
sg64
(lp2330
g862
asbasbasbag57
(g73
g59
NtRp2331
(dp2332
g62
(dp2333
sg71
g2264
sg64
(lp2334
g57
(g78
g59
NtRp2335
(dp2336
g62
(dp2337
g82
g83
ssg71
g2331
sg64
(lp2338
S'HTTP_ACCEPT_LANGUAGE'
p2339
asbag57
(g78
g59
NtRp2340
(dp2341
g62
(dp2342
g89
g90
ssg71
g2331
sg64
(lp2343
S':'
asbag57
(g78
g59
NtRp2344
(dp2345
g62
(dp2346
sg71
g2331
sg64
(lp2347
g57
(g58
g59
NtRp2348
(dp2349
g62
(dp2350
g70
I3
ssg71
g2344
sg64
(lp2351
g884
asbasbasbag57
(g73
g59
NtRp2352
(dp2353
g62
(dp2354
sg71
g2264
sg64
(lp2355
g57
(g78
g59
NtRp2356
(dp2357
g62
(dp2358
g82
g83
ssg71
g2352
sg64
(lp2359
S'HTTP_CACHE_CONTROL'
p2360
asbag57
(g78
g59
NtRp2361
(dp2362
g62
(dp2363
g89
g90
ssg71
g2352
sg64
(lp2364
S':'
asbag57
(g78
g59
NtRp2365
(dp2366
g62
(dp2367
sg71
g2352
sg64
(lp2368
g57
(g58
g59
NtRp2369
(dp2370
g62
(dp2371
g70
I3
ssg71
g2365
sg64
(lp2372
g906
asbasbasbag57
(g73
g59
NtRp2373
(dp2374
g62
(dp2375
sg71
g2264
sg64
(lp2376
g57
(g78
g59
NtRp2377
(dp2378
g62
(dp2379
g82
g83
ssg71
g2373
sg64
(lp2380
S'HTTP_CONNECTION'
p2381
asbag57
(g78
g59
NtRp2382
(dp2383
g62
(dp2384
g89
g90
ssg71
g2373
sg64
(lp2385
S':'
asbag57
(g78
g59
NtRp2386
(dp2387
g62
(dp2388
sg71
g2373
sg64
(lp2389
g57
(g58
g59
NtRp2390
(dp2391
g62
(dp2392
g70
I3
ssg71
g2386
sg64
(lp2393
g928
asbasbasbag57
(g73
g59
NtRp2394
(dp2395
g62
(dp2396
sg71
g2264
sg64
(lp2397
g57
(g78
g59
NtRp2398
(dp2399
g62
(dp2400
g82
g83
ssg71
g2394
sg64
(lp2401
S'HTTP_COOKIE'
p2402
asbag57
(g78
g59
NtRp2403
(dp2404
g62
(dp2405
g89
g90
ssg71
g2394
sg64
(lp2406
S':'
asbag57
(g78
g59
NtRp2407
(dp2408
g62
(dp2409
sg71
g2394
sg64
(lp2410
g57
(g58
g59
NtRp2411
(dp2412
g62
(dp2413
g70
I3
ssg71
g2407
sg64
(lp2414
g950
asbasbasbag57
(g73
g59
NtRp2415
(dp2416
g62
(dp2417
sg71
g2264
sg64
(lp2418
g57
(g78
g59
NtRp2419
(dp2420
g62
(dp2421
g82
g83
ssg71
g2415
sg64
(lp2422
S'HTTP_HOST'
p2423
asbag57
(g78
g59
NtRp2424
(dp2425
g62
(dp2426
g89
g90
ssg71
g2415
sg64
(lp2427
S':'
asbag57
(g78
g59
NtRp2428
(dp2429
g62
(dp2430
sg71
g2415
sg64
(lp2431
g57
(g58
g59
NtRp2432
(dp2433
g62
(dp2434
g70
I3
ssg71
g2428
sg64
(lp2435
g972
asbasbasbag57
(g73
g59
NtRp2436
(dp2437
g62
(dp2438
sg71
g2264
sg64
(lp2439
g57
(g78
g59
NtRp2440
(dp2441
g62
(dp2442
g82
g83
ssg71
g2436
sg64
(lp2443
S'HTTP_REFERER'
p2444
asbag57
(g78
g59
NtRp2445
(dp2446
g62
(dp2447
g89
g90
ssg71
g2436
sg64
(lp2448
S':'
asbag57
(g78
g59
NtRp2449
(dp2450
g62
(dp2451
sg71
g2436
sg64
(lp2452
g57
(g58
g59
NtRp2453
(dp2454
g62
(dp2455
g70
I3
ssg71
g2449
sg64
(lp2456
g994
asbasbasbag57
(g73
g59
NtRp2457
(dp2458
g62
(dp2459
sg71
g2264
sg64
(lp2460
g57
(g78
g59
NtRp2461
(dp2462
g62
(dp2463
g82
g83
ssg71
g2457
sg64
(lp2464
S'HTTP_USER_AGENT'
p2465
asbag57
(g78
g59
NtRp2466
(dp2467
g62
(dp2468
g89
g90
ssg71
g2457
sg64
(lp2469
S':'
asbag57
(g78
g59
NtRp2470
(dp2471
g62
(dp2472
sg71
g2457
sg64
(lp2473
g57
(g58
g59
NtRp2474
(dp2475
g62
(dp2476
g70
I3
ssg71
g2470
sg64
(lp2477
g1016
asbasbasbag57
(g73
g59
NtRp2478
(dp2479
g62
(dp2480
sg71
g2264
sg64
(lp2481
g57
(g78
g59
NtRp2482
(dp2483
g62
(dp2484
g82
g83
ssg71
g2478
sg64
(lp2485
S'PATH_INFO'
p2486
asbag57
(g78
g59
NtRp2487
(dp2488
g62
(dp2489
g89
g90
ssg71
g2478
sg64
(lp2490
S':'
asbag57
(g78
g59
NtRp2491
(dp2492
g62
(dp2493
sg71
g2478
sg64
(lp2494
g57
(g58
g59
NtRp2495
(dp2496
g62
(dp2497
g70
I3
ssg71
g2491
sg64
(lp2498
g1080
asbasbasbag57
(g73
g59
NtRp2499
(dp2500
g62
(dp2501
sg71
g2264
sg64
(lp2502
g57
(g78
g59
NtRp2503
(dp2504
g62
(dp2505
g82
g83
ssg71
g2499
sg64
(lp2506
S'QUERY_STRING'
p2507
asbag57
(g78
g59
NtRp2508
(dp2509
g62
(dp2510
g89
g90
ssg71
g2499
sg64
(lp2511
S':'
asbag57
(g78
g59
NtRp2512
(dp2513
g62
(dp2514
sg71
g2499
sg64
(lp2515
g57
(g58
g59
NtRp2516
(dp2517
g62
(dp2518
g70
I3
ssg71
g2512
sg64
(lp2519
S''
asbasbasbag57
(g73
g59
NtRp2520
(dp2521
g62
(dp2522
sg71
g2264
sg64
(lp2523
g57
(g78
g59
NtRp2524
(dp2525
g62
(dp2526
g82
g83
ssg71
g2520
sg64
(lp2527
S'REMOTE_ADDR'
p2528
asbag57
(g78
g59
NtRp2529
(dp2530
g62
(dp2531
g89
g90
ssg71
g2520
sg64
(lp2532
S':'
asbag57
(g78
g59
NtRp2533
(dp2534
g62
(dp2535
sg71
g2520
sg64
(lp2536
g57
(g58
g59
NtRp2537
(dp2538
g62
(dp2539
g70
I3
ssg71
g2533
sg64
(lp2540
g190
asbasbasbag57
(g73
g59
NtRp2541
(dp2542
g62
(dp2543
sg71
g2264
sg64
(lp2544
g57
(g78
g59
NtRp2545
(dp2546
g62
(dp2547
g82
g83
ssg71
g2541
sg64
(lp2548
S'REMOTE_PORT'
p2549
asbag57
(g78
g59
NtRp2550
(dp2551
g62
(dp2552
g89
g90
ssg71
g2541
sg64
(lp2553
S':'
asbag57
(g78
g59
NtRp2554
(dp2555
g62
(dp2556
sg71
g2541
sg64
(lp2557
g57
(g58
g59
NtRp2558
(dp2559
g62
(dp2560
g70
I3
ssg71
g2554
sg64
(lp2561
g1144
asbasbasbag57
(g73
g59
NtRp2562
(dp2563
g62
(dp2564
sg71
g2264
sg64
(lp2565
g57
(g78
g59
NtRp2566
(dp2567
g62
(dp2568
g82
g83
ssg71
g2562
sg64
(lp2569
S'REQUEST_METHOD'
p2570
asbag57
(g78
g59
NtRp2571
(dp2572
g62
(dp2573
g89
g90
ssg71
g2562
sg64
(lp2574
S':'
asbag57
(g78
g59
NtRp2575
(dp2576
g62
(dp2577
sg71
g2562
sg64
(lp2578
g57
(g58
g59
NtRp2579
(dp2580
g62
(dp2581
g70
I3
ssg71
g2575
sg64
(lp2582
g1166
asbasbasbag57
(g73
g59
NtRp2583
(dp2584
g62
(dp2585
sg71
g2264
sg64
(lp2586
g57
(g78
g59
NtRp2587
(dp2588
g62
(dp2589
g82
g83
ssg71
g2583
sg64
(lp2590
S'SCRIPT_NAME'
p2591
asbag57
(g78
g59
NtRp2592
(dp2593
g62
(dp2594
g89
g90
ssg71
g2583
sg64
(lp2595
S':'
asbag57
(g78
g59
NtRp2596
(dp2597
g62
(dp2598
sg71
g2583
sg64
(lp2599
g57
(g58
g59
NtRp2600
(dp2601
g62
(dp2602
g70
I3
ssg71
g2596
sg64
(lp2603
S''
asbasbasbag57
(g73
g59
NtRp2604
(dp2605
g62
(dp2606
sg71
g2264
sg64
(lp2607
g57
(g78
g59
NtRp2608
(dp2609
g62
(dp2610
g82
g83
ssg71
g2604
sg64
(lp2611
S'SERVER_NAME'
p2612
asbag57
(g78
g59
NtRp2613
(dp2614
g62
(dp2615
g89
g90
ssg71
g2604
sg64
(lp2616
S':'
asbag57
(g78
g59
NtRp2617
(dp2618
g62
(dp2619
sg71
g2604
sg64
(lp2620
g57
(g58
g59
NtRp2621
(dp2622
g62
(dp2623
g70
I3
ssg71
g2617
sg64
(lp2624
g1209
asbasbasbag57
(g73
g59
NtRp2625
(dp2626
g62
(dp2627
sg71
g2264
sg64
(lp2628
g57
(g78
g59
NtRp2629
(dp2630
g62
(dp2631
g82
g83
ssg71
g2625
sg64
(lp2632
S'SERVER_PORT'
p2633
asbag57
(g78
g59
NtRp2634
(dp2635
g62
(dp2636
g89
g90
ssg71
g2625
sg64
(lp2637
S':'
asbag57
(g78
g59
NtRp2638
(dp2639
g62
(dp2640
sg71
g2625
sg64
(lp2641
g57
(g58
g59
NtRp2642
(dp2643
g62
(dp2644
g70
I3
ssg71
g2638
sg64
(lp2645
g1231
asbasbasbag57
(g73
g59
NtRp2646
(dp2647
g62
(dp2648
sg71
g2264
sg64
(lp2649
g57
(g78
g59
NtRp2650
(dp2651
g62
(dp2652
g82
g83
ssg71
g2646
sg64
(lp2653
S'SERVER_PROTOCOL'
p2654
asbag57
(g78
g59
NtRp2655
(dp2656
g62
(dp2657
g89
g90
ssg71
g2646
sg64
(lp2658
S':'
asbag57
(g78
g59
NtRp2659
(dp2660
g62
(dp2661
sg71
g2646
sg64
(lp2662
g57
(g58
g59
NtRp2663
(dp2664
g62
(dp2665
g70
I3
ssg71
g2659
sg64
(lp2666
g1253
asbasbasbag57
(g73
g59
NtRp2667
(dp2668
g62
(dp2669
sg71
g2264
sg64
(lp2670
g57
(g78
g59
NtRp2671
(dp2672
g62
(dp2673
g82
g83
ssg71
g2667
sg64
(lp2674
S'SERVER_SOFTWARE'
p2675
asbag57
(g78
g59
NtRp2676
(dp2677
g62
(dp2678
g89
g90
ssg71
g2667
sg64
(lp2679
S':'
asbag57
(g78
g59
NtRp2680
(dp2681
g62
(dp2682
sg71
g2667
sg64
(lp2683
g57
(g58
g59
NtRp2684
(dp2685
g62
(dp2686
g70
I3
ssg71
g2680
sg64
(lp2687
g1275
asbasbasbag57
(g73
g59
NtRp2688
(dp2689
g62
(dp2690
sg71
g2264
sg64
(lp2691
g57
(g78
g59
NtRp2692
(dp2693
g62
(dp2694
g82
g83
ssg71
g2688
sg64
(lp2695
S'wsgi.errors'
p2696
asbag57
(g78
g59
NtRp2697
(dp2698
g62
(dp2699
g89
g90
ssg71
g2688
sg64
(lp2700
S':'
asbag57
(g78
g59
NtRp2701
(dp2702
g62
(dp2703
sg71
g2688
sg64
(lp2704
g57
(g58
g59
NtRp2705
(dp2706
g62
(dp2707
g70
I3
ssg71
g2701
sg64
(lp2708
S"<open file '<stderr>', mode 'w' at 0xb73090d0>"
p2709
asbasbasbag57
(g73
g59
NtRp2710
(dp2711
g62
(dp2712
sg71
g2264
sg64
(lp2713
g57
(g78
g59
NtRp2714
(dp2715
g62
(dp2716
g82
g83
ssg71
g2710
sg64
(lp2717
S'wsgi.file_wrapper'
p2718
asbag57
(g78
g59
NtRp2719
(dp2720
g62
(dp2721
g89
g90
ssg71
g2710
sg64
(lp2722
S':'
asbag57
(g78
g59
NtRp2723
(dp2724
g62
(dp2725
sg71
g2710
sg64
(lp2726
g57
(g58
g59
NtRp2727
(dp2728
g62
(dp2729
g70
I3
ssg71
g2723
sg64
(lp2730
S'<class wsgiref.util.FileWrapper at 0x8ce620c>'
p2731
asbasbasbag57
(g73
g59
NtRp2732
(dp2733
g62
(dp2734
sg71
g2264
sg64
(lp2735
g57
(g78
g59
NtRp2736
(dp2737
g62
(dp2738
g82
g83
ssg71
g2732
sg64
(lp2739
S'wsgi.input'
p2740
asbag57
(g78
g59
NtRp2741
(dp2742
g62
(dp2743
g89
g90
ssg71
g2732
sg64
(lp2744
S':'
asbag57
(g78
g59
NtRp2745
(dp2746
g62
(dp2747
sg71
g2732
sg64
(lp2748
g57
(g58
g59
NtRp2749
(dp2750
g62
(dp2751
g70
I3
ssg71
g2745
sg64
(lp2752
S'<cStringIO.StringO object at 0x9651d20>'
p2753
asbasbasbag57
(g73
g59
NtRp2754
(dp2755
g62
(dp2756
sg71
g2264
sg64
(lp2757
g57
(g78
g59
NtRp2758
(dp2759
g62
(dp2760
g82
g83
ssg71
g2754
sg64
(lp2761
S'wsgi.multiprocess'
p2762
asbag57
(g78
g59
NtRp2763
(dp2764
g62
(dp2765
g89
g90
ssg71
g2754
sg64
(lp2766
S':'
asbag57
(g78
g59
NtRp2767
(dp2768
g62
(dp2769
sg71
g2754
sg64
(lp2770
g57
(g58
g59
NtRp2771
(dp2772
g62
(dp2773
g70
I3
ssg71
g2767
sg64
(lp2774
g100
asbasbasbag57
(g73
g59
NtRp2775
(dp2776
g62
(dp2777
sg71
g2264
sg64
(lp2778
g57
(g78
g59
NtRp2779
(dp2780
g62
(dp2781
g82
g83
ssg71
g2775
sg64
(lp2782
S'wsgi.multithread'
p2783
asbag57
(g78
g59
NtRp2784
(dp2785
g62
(dp2786
g89
g90
ssg71
g2775
sg64
(lp2787
S':'
asbag57
(g78
g59
NtRp2788
(dp2789
g62
(dp2790
sg71
g2775
sg64
(lp2791
g57
(g58
g59
NtRp2792
(dp2793
g62
(dp2794
g70
I3
ssg71
g2788
sg64
(lp2795
g1515
asbasbasbag57
(g73
g59
NtRp2796
(dp2797
g62
(dp2798
sg71
g2264
sg64
(lp2799
g57
(g78
g59
NtRp2800
(dp2801
g62
(dp2802
g82
g83
ssg71
g2796
sg64
(lp2803
S'wsgi.run_once'
p2804
asbag57
(g78
g59
NtRp2805
(dp2806
g62
(dp2807
g89
g90
ssg71
g2796
sg64
(lp2808
S':'
asbag57
(g78
g59
NtRp2809
(dp2810
g62
(dp2811
sg71
g2796
sg64
(lp2812
g57
(g58
g59
NtRp2813
(dp2814
g62
(dp2815
g70
I3
ssg71
g2809
sg64
(lp2816
g100
asbasbasbag57
(g73
g59
NtRp2817
(dp2818
g62
(dp2819
sg71
g2264
sg64
(lp2820
g57
(g78
g59
NtRp2821
(dp2822
g62
(dp2823
g82
g83
ssg71
g2817
sg64
(lp2824
S'wsgi.url_scheme'
p2825
asbag57
(g78
g59
NtRp2826
(dp2827
g62
(dp2828
g89
g90
ssg71
g2817
sg64
(lp2829
S':'
asbag57
(g78
g59
NtRp2830
(dp2831
g62
(dp2832
sg71
g2817
sg64
(lp2833
g57
(g58
g59
NtRp2834
(dp2835
g62
(dp2836
g70
I3
ssg71
g2830
sg64
(lp2837
g1558
asbasbasbag57
(g73
g59
NtRp2838
(dp2839
g62
(dp2840
sg71
g2264
sg64
(lp2841
g57
(g78
g59
NtRp2842
(dp2843
g62
(dp2844
g82
g83
ssg71
g2838
sg64
(lp2845
S'wsgi.version'
p2846
asbag57
(g78
g59
NtRp2847
(dp2848
g62
(dp2849
g89
g90
ssg71
g2838
sg64
(lp2850
S':'
asbag57
(g78
g59
NtRp2851
(dp2852
g62
(dp2853
sg71
g2838
sg64
(lp2854
g57
(g58
g59
NtRp2855
(dp2856
g62
(dp2857
g70
I3
ssg71
g2851
sg64
(lp2858
S'1'
asbasbasbasbasbasbasbasbasbasbasbasbasbsS'frames'
p2859
(lp2860
(dp2861
S'file'
p2862
S'/home/kaique/Projects/WebApps/web2py/gluon/restricted.py'
p2863
sS'dump'
p2864
(dp2865
S'environment'
p2866
S"{'A': <class 'gluon.html.A'>, 'Auth': <class 'gluon.tools.Auth'>, 'B': <class 'gluon.html.B'>, 'BEAUTIFY': <class 'gluon.html.BEAUTIFY'>, 'BODY': <class 'gluon.html.BODY'>, 'BR': <class 'gluon.html.BR'>, 'BUTTON': <class 'gluon.html.BUTTON'>, 'CAT': <class 'gluon.html.CAT'>, 'CENTER': <class 'gluon.html.CENTER'>, 'CLEANUP': <class 'gluon.validators.CLEANUP'>, ...}"
p2867
sS'ccode'
p2868
S'<code object <module> at 0x9301a88, file "/home/...py/applications/makebrand/models/db.py", line 12>'
p2869
ssS'lnum'
p2870
I204
sS'lines'
p2871
(dp2872
I199
S'    try:'
p2873
sI200
S'        if type(code) == types.CodeType:'
p2874
sI201
S'            ccode = code'
p2875
sI202
S'        else:'
p2876
sI203
S'            ccode = compile2(code,layer)'
p2877
sI204
S'        exec ccode in environment'
p2878
sI205
S'    except HTTP:'
p2879
sI206
S'        raise'
p2880
sI207
S'    except RestrictedError:'
p2881
sI208
S'        # do not encapsulate (obfuscate) the original RestrictedError'
p2882
ssS'call'
p2883
S'(code="# -*- coding: utf-8 -*-\\n\\n#######################...id),\\n\\t\\t\\t\\tField(\'file\', db.media),\\n\\t\\t\\t\\tsignature)\\n", environment={\'A\': <class \'gluon.html.A\'>, \'Auth\': <class \'gluon.tools.Auth\'>, \'B\': <class \'gluon.html.B\'>, \'BEAUTIFY\': <class \'gluon.html.BEAUTIFY\'>, \'BODY\': <class \'gluon.html.BODY\'>, \'BR\': <class \'gluon.html.BR\'>, \'BUTTON\': <class \'gluon.html.BUTTON\'>, \'CAT\': <class \'gluon.html.CAT\'>, \'CENTER\': <class \'gluon.html.CENTER\'>, \'CLEANUP\': <class \'gluon.validators.CLEANUP\'>, ...}, layer=\'/home/kaique/Projects/WebApps/web2py/applications/makebrand/models/db.py\')'
p2884
sS'func'
p2885
S'restricted'
p2886
sa(dp2887
g2862
S'/home/kaique/Projects/WebApps/web2py/applications/makebrand/models/db.py'
p2888
sg2864
(dp2889
S'SQLFORM.widgets.options'
p2890
S"<class 'gluon.sqlhtml.OptionsWidget'>"
p2891
sS'db.project'
p2892
S"<Table {'_db': <DAL {'auth_event': <Table {'orig...>, '_id': <gluon.dal.Field object at 0x96e626c>}>"
p2893
sS'name'
p2894
S'undefined'
p2895
sS'db.project.client_id.widget'
p2896
S'None'
p2897
sS'db'
p2898
S"<DAL {'auth_event': <Table {'origin': <gluon.dal... '_id': <gluon.dal.Field object at 0x966060c>}>}>"
p2899
sS'project'
p2900
g2895
sS'db.project.client_id'
p2901
S'<gluon.dal.Field object>'
p2902
sS'SQLFORM'
p2903
S"<class 'gluon.sqlhtml.SQLFORM'>"
p2904
sS'SQLFORM.widgets'
p2905
S"<Storage {'multiple': <class 'gluon.sqlhtml.Mult...ss 'gluon.sqlhtml.OptionsWidget'>, 'blob': None}>"
p2906
sS'SQLFORM.widgets.options.widget'
p2907
S"<bound method type.widget of <class 'gluon.sqlhtml.OptionsWidget'>>"
p2908
ssg2870
I117
sg2871
(dp2909
I112
S"\t\t\t\tField('terminated', 'boolean'),"
p2910
sI113
S"\t\t\t\tField('client_id', db.client),"
p2911
sI114
S"\t\t\t\tField('user_id', db.auth_user, default= auth.user_id),"
p2912
sI115
S'\t\t\t\tsignature)'
p2913
sI116
S''
sI117
S'db.project.client_id.widget = SQLFORM.widgets.options.widget(project, name)'
p2914
sI118
S''
sI119
S'# Briefing sub project table'
p2915
sI120
S"db.define_table('subproject',"
p2916
sI121
S"\t\t\t\tField('name', 'string'),"
p2917
ssg2883
S'()'
p2918
sg2885
S'<module>'
p2919
sasS'pyver'
p2920
S'Python 2.7.2+: /usr/bin/python'
p2921
sS'session'
p2922
g57
(g58
g59
NtRp2923
(dp2924
g62
(dp2925
sg64
(lp2926
g57
(g66
g59
NtRp2927
(dp2928
g62
(dp2929
g70
I5
ssg71
Nsg64
(lp2930
g57
(g73
g59
NtRp2931
(dp2932
g62
(dp2933
sg71
g2927
sg64
(lp2934
g57
(g78
g59
NtRp2935
(dp2936
g62
(dp2937
g82
g83
ssg71
g2931
sg64
(lp2938
S'auth'
p2939
asbag57
(g78
g59
NtRp2940
(dp2941
g62
(dp2942
g89
g90
ssg71
g2931
sg64
(lp2943
S':'
asbag57
(g78
g59
NtRp2944
(dp2945
g62
(dp2946
sg71
g2931
sg64
(lp2947
g57
(g58
g59
NtRp2948
(dp2949
g62
(dp2950
g70
I5
ssg71
g2944
sg64
(lp2951
g57
(g66
g59
NtRp2952
(dp2953
g62
(dp2954
g70
I4
ssg71
Nsg64
(lp2955
g57
(g73
g59
NtRp2956
(dp2957
g62
(dp2958
sg71
g2952
sg64
(lp2959
g57
(g78
g59
NtRp2960
(dp2961
g62
(dp2962
g82
g83
ssg71
g2956
sg64
(lp2963
S'expiration'
p2964
asbag57
(g78
g59
NtRp2965
(dp2966
g62
(dp2967
g89
g90
ssg71
g2956
sg64
(lp2968
S':'
asbag57
(g78
g59
NtRp2969
(dp2970
g62
(dp2971
sg71
g2956
sg64
(lp2972
g57
(g58
g59
NtRp2973
(dp2974
g62
(dp2975
g70
I4
ssg71
g2969
sg64
(lp2976
S'2592000'
p2977
asbasbasbag57
(g73
g59
NtRp2978
(dp2979
g62
(dp2980
sg71
g2952
sg64
(lp2981
g57
(g78
g59
NtRp2982
(dp2983
g62
(dp2984
g82
g83
ssg71
g2978
sg64
(lp2985
S'hmac_key'
p2986
asbag57
(g78
g59
NtRp2987
(dp2988
g62
(dp2989
g89
g90
ssg71
g2978
sg64
(lp2990
S':'
asbag57
(g78
g59
NtRp2991
(dp2992
g62
(dp2993
sg71
g2978
sg64
(lp2994
g57
(g58
g59
NtRp2995
(dp2996
g62
(dp2997
g70
I4
ssg71
g2991
sg64
(lp2998
S'46d838c3-3442-4911-bf4f-3704755bd5c6'
p2999
asbasbasbag57
(g73
g59
NtRp3000
(dp3001
g62
(dp3002
sg71
g2952
sg64
(lp3003
g57
(g78
g59
NtRp3004
(dp3005
g62
(dp3006
g82
g83
ssg71
g3000
sg64
(lp3007
S'last_visit'
p3008
asbag57
(g78
g59
NtRp3009
(dp3010
g62
(dp3011
g89
g90
ssg71
g3000
sg64
(lp3012
S':'
asbag57
(g78
g59
NtRp3013
(dp3014
g62
(dp3015
sg71
g3000
sg64
(lp3016
g57
(g58
g59
NtRp3017
(dp3018
g62
(dp3019
g70
I4
ssg71
g3013
sg64
(lp3020
S'datetime.datetime(2012, 2, 1, 16, 46, 8, 441398)'
p3021
asbasbasbag57
(g73
g59
NtRp3022
(dp3023
g62
(dp3024
sg71
g2952
sg64
(lp3025
g57
(g78
g59
NtRp3026
(dp3027
g62
(dp3028
g82
g83
ssg71
g3022
sg64
(lp3029
S'remember'
p3030
asbag57
(g78
g59
NtRp3031
(dp3032
g62
(dp3033
g89
g90
ssg71
g3022
sg64
(lp3034
S':'
asbag57
(g78
g59
NtRp3035
(dp3036
g62
(dp3037
sg71
g3022
sg64
(lp3038
g57
(g58
g59
NtRp3039
(dp3040
g62
(dp3041
g70
I4
ssg71
g3035
sg64
(lp3042
g100
asbasbasbag57
(g73
g59
NtRp3043
(dp3044
g62
(dp3045
sg71
g2952
sg64
(lp3046
g57
(g78
g59
NtRp3047
(dp3048
g62
(dp3049
g82
g83
ssg71
g3043
sg64
(lp3050
S'user'
p3051
asbag57
(g78
g59
NtRp3052
(dp3053
g62
(dp3054
g89
g90
ssg71
g3043
sg64
(lp3055
S':'
asbag57
(g78
g59
NtRp3056
(dp3057
g62
(dp3058
sg71
g3043
sg64
(lp3059
g57
(g58
g59
NtRp3060
(dp3061
g62
(dp3062
g70
I4
ssg71
g3056
sg64
(lp3063
g57
(g66
g59
NtRp3064
(dp3065
g62
(dp3066
g70
I3
ssg71
Nsg64
(lp3067
g57
(g73
g59
NtRp3068
(dp3069
g62
(dp3070
sg71
g3064
sg64
(lp3071
g57
(g78
g59
NtRp3072
(dp3073
g62
(dp3074
g82
g83
ssg71
g3068
sg64
(lp3075
S'email'
p3076
asbag57
(g78
g59
NtRp3077
(dp3078
g62
(dp3079
g89
g90
ssg71
g3068
sg64
(lp3080
S':'
asbag57
(g78
g59
NtRp3081
(dp3082
g62
(dp3083
sg71
g3068
sg64
(lp3084
g57
(g58
g59
NtRp3085
(dp3086
g62
(dp3087
g70
I3
ssg71
g3081
sg64
(lp3088
S'kaique.developer@gmail.com'
p3089
asbasbasbag57
(g73
g59
NtRp3090
(dp3091
g62
(dp3092
sg71
g3064
sg64
(lp3093
g57
(g78
g59
NtRp3094
(dp3095
g62
(dp3096
g82
g83
ssg71
g3090
sg64
(lp3097
S'first_name'
p3098
asbag57
(g78
g59
NtRp3099
(dp3100
g62
(dp3101
g89
g90
ssg71
g3090
sg64
(lp3102
S':'
asbag57
(g78
g59
NtRp3103
(dp3104
g62
(dp3105
sg71
g3090
sg64
(lp3106
g57
(g58
g59
NtRp3107
(dp3108
g62
(dp3109
g70
I3
ssg71
g3103
sg64
(lp3110
S'kaique'
p3111
asbasbasbag57
(g73
g59
NtRp3112
(dp3113
g62
(dp3114
sg71
g3064
sg64
(lp3115
g57
(g78
g59
NtRp3116
(dp3117
g62
(dp3118
g82
g83
ssg71
g3112
sg64
(lp3119
S'id'
p3120
asbag57
(g78
g59
NtRp3121
(dp3122
g62
(dp3123
g89
g90
ssg71
g3112
sg64
(lp3124
S':'
asbag57
(g78
g59
NtRp3125
(dp3126
g62
(dp3127
sg71
g3112
sg64
(lp3128
g57
(g58
g59
NtRp3129
(dp3130
g62
(dp3131
g70
I3
ssg71
g3125
sg64
(lp3132
S'1'
asbasbasbag57
(g73
g59
NtRp3133
(dp3134
g62
(dp3135
sg71
g3064
sg64
(lp3136
g57
(g78
g59
NtRp3137
(dp3138
g62
(dp3139
g82
g83
ssg71
g3133
sg64
(lp3140
S'last_name'
p3141
asbag57
(g78
g59
NtRp3142
(dp3143
g62
(dp3144
g89
g90
ssg71
g3133
sg64
(lp3145
S':'
asbag57
(g78
g59
NtRp3146
(dp3147
g62
(dp3148
sg71
g3133
sg64
(lp3149
g57
(g58
g59
NtRp3150
(dp3151
g62
(dp3152
g70
I3
ssg71
g3146
sg64
(lp3153
S'silva'
p3154
asbasbasbag57
(g73
g59
NtRp3155
(dp3156
g62
(dp3157
sg71
g3064
sg64
(lp3158
g57
(g78
g59
NtRp3159
(dp3160
g62
(dp3161
g82
g83
ssg71
g3155
sg64
(lp3162
S'password'
p3163
asbag57
(g78
g59
NtRp3164
(dp3165
g62
(dp3166
g89
g90
ssg71
g3155
sg64
(lp3167
S':'
asbag57
(g78
g59
NtRp3168
(dp3169
g62
(dp3170
sg71
g3155
sg64
(lp3171
g57
(g58
g59
NtRp3172
(dp3173
g62
(dp3174
g70
I3
ssg71
g3168
sg64
(lp3175
S'72c6a018d62d3fb47d95389e4a062cd2'
p3176
asbasbasbag57
(g73
g59
NtRp3177
(dp3178
g62
(dp3179
sg71
g3064
sg64
(lp3180
g57
(g78
g59
NtRp3181
(dp3182
g62
(dp3183
g82
g83
ssg71
g3177
sg64
(lp3184
S'registration_id'
p3185
asbag57
(g78
g59
NtRp3186
(dp3187
g62
(dp3188
g89
g90
ssg71
g3177
sg64
(lp3189
S':'
asbag57
(g78
g59
NtRp3190
(dp3191
g62
(dp3192
sg71
g3177
sg64
(lp3193
g57
(g58
g59
NtRp3194
(dp3195
g62
(dp3196
g70
I3
ssg71
g3190
sg64
(lp3197
S''
asbasbasbag57
(g73
g59
NtRp3198
(dp3199
g62
(dp3200
sg71
g3064
sg64
(lp3201
g57
(g78
g59
NtRp3202
(dp3203
g62
(dp3204
g82
g83
ssg71
g3198
sg64
(lp3205
S'registration_key'
p3206
asbag57
(g78
g59
NtRp3207
(dp3208
g62
(dp3209
g89
g90
ssg71
g3198
sg64
(lp3210
S':'
asbag57
(g78
g59
NtRp3211
(dp3212
g62
(dp3213
sg71
g3198
sg64
(lp3214
g57
(g58
g59
NtRp3215
(dp3216
g62
(dp3217
g70
I3
ssg71
g3211
sg64
(lp3218
S''
asbasbasbag57
(g73
g59
NtRp3219
(dp3220
g62
(dp3221
sg71
g3064
sg64
(lp3222
g57
(g78
g59
NtRp3223
(dp3224
g62
(dp3225
g82
g83
ssg71
g3219
sg64
(lp3226
S'reset_password_key'
p3227
asbag57
(g78
g59
NtRp3228
(dp3229
g62
(dp3230
g89
g90
ssg71
g3219
sg64
(lp3231
S':'
asbag57
(g78
g59
NtRp3232
(dp3233
g62
(dp3234
sg71
g3219
sg64
(lp3235
g57
(g58
g59
NtRp3236
(dp3237
g62
(dp3238
g70
I3
ssg71
g3232
sg64
(lp3239
S''
asbasbasbasbasbasbasbasbasbasbasbag57
(g73
g59
NtRp3240
(dp3241
g62
(dp3242
sg71
g2927
sg64
(lp3243
g57
(g78
g59
NtRp3244
(dp3245
g62
(dp3246
g82
g83
ssg71
g3240
sg64
(lp3247
S'last_query'
p3248
asbag57
(g78
g59
NtRp3249
(dp3250
g62
(dp3251
g89
g90
ssg71
g3240
sg64
(lp3252
S':'
asbag57
(g78
g59
NtRp3253
(dp3254
g62
(dp3255
sg71
g3240
sg64
(lp3256
g57
(g58
g59
NtRp3257
(dp3258
g62
(dp3259
g70
I5
ssg71
g3253
sg64
(lp3260
S'db.project.id>0'
p3261
asbasbasbasbasbsS'etype'
p3262
S"<type 'exceptions.NameError'>"
p3263
sS'date'
p3264
S'Wed Feb  1 17:39:24 2012'
p3265
sS'response'
p3266
g57
(g58
g59
NtRp3267
(dp3268
g62
(dp3269
sg64
(lp3270
g57
(g66
g59
NtRp3271
(dp3272
g62
(dp3273
g70
I5
ssg71
Nsg64
(lp3274
g57
(g73
g59
NtRp3275
(dp3276
g62
(dp3277
sg71
g3271
sg64
(lp3278
g57
(g78
g59
NtRp3279
(dp3280
g62
(dp3281
g82
g83
ssg71
g3275
sg64
(lp3282
g155
asbag57
(g78
g59
NtRp3283
(dp3284
g62
(dp3285
g89
g90
ssg71
g3275
sg64
(lp3286
S':'
asbag57
(g78
g59
NtRp3287
(dp3288
g62
(dp3289
sg71
g3275
sg64
(lp3290
g57
(g58
g59
NtRp3291
(dp3292
g62
(dp3293
g70
I5
ssg71
g3287
sg64
(lp3294
S'<cStringIO.StringO object at 0x8dbdd40>'
p3295
asbasbasbag57
(g73
g59
NtRp3296
(dp3297
g62
(dp3298
sg71
g3271
sg64
(lp3299
g57
(g78
g59
NtRp3300
(dp3301
g62
(dp3302
g82
g83
ssg71
g3296
sg64
(lp3303
g221
asbag57
(g78
g59
NtRp3304
(dp3305
g62
(dp3306
g89
g90
ssg71
g3296
sg64
(lp3307
S':'
asbag57
(g78
g59
NtRp3308
(dp3309
g62
(dp3310
sg71
g3296
sg64
(lp3311
g57
(g58
g59
NtRp3312
(dp3313
g62
(dp3314
g70
I5
ssg71
g3308
sg64
(lp3315
g57
(g66
g59
NtRp3316
(dp3317
g62
(dp3318
g70
I4
ssg71
Nsg64
(lp3319
g57
(g73
g59
NtRp3320
(dp3321
g62
(dp3322
sg71
g3316
sg64
(lp3323
g57
(g78
g59
NtRp3324
(dp3325
g62
(dp3326
g82
g83
ssg71
g3320
sg64
(lp3327
S'session_id_makebrand'
p3328
asbag57
(g78
g59
NtRp3329
(dp3330
g62
(dp3331
g89
g90
ssg71
g3320
sg64
(lp3332
S':'
asbag57
(g78
g59
NtRp3333
(dp3334
g62
(dp3335
sg71
g3320
sg64
(lp3336
g57
(g58
g59
NtRp3337
(dp3338
g62
(dp3339
g70
I4
ssg71
g3333
sg64
(lp3340
g57
(g66
g59
NtRp3341
(dp3342
g62
(dp3343
g70
I3
ssg71
Nsg64
(lp3344
g57
(g73
g59
NtRp3345
(dp3346
g62
(dp3347
sg71
g3341
sg64
(lp3348
g57
(g78
g59
NtRp3349
(dp3350
g62
(dp3351
g82
g83
ssg71
g3345
sg64
(lp3352
g271
asbag57
(g78
g59
NtRp3353
(dp3354
g62
(dp3355
g89
g90
ssg71
g3345
sg64
(lp3356
S':'
asbag57
(g78
g59
NtRp3357
(dp3358
g62
(dp3359
sg71
g3345
sg64
(lp3360
g57
(g58
g59
NtRp3361
(dp3362
g62
(dp3363
g70
I3
ssg71
g3357
sg64
(lp3364
S''
asbasbasbag57
(g73
g59
NtRp3365
(dp3366
g62
(dp3367
sg71
g3341
sg64
(lp3368
g57
(g78
g59
NtRp3369
(dp3370
g62
(dp3371
g82
g83
ssg71
g3365
sg64
(lp3372
g292
asbag57
(g78
g59
NtRp3373
(dp3374
g62
(dp3375
g89
g90
ssg71
g3365
sg64
(lp3376
S':'
asbag57
(g78
g59
NtRp3377
(dp3378
g62
(dp3379
sg71
g3365
sg64
(lp3380
g57
(g58
g59
NtRp3381
(dp3382
g62
(dp3383
g70
I3
ssg71
g3377
sg64
(lp3384
S''
asbasbasbag57
(g73
g59
NtRp3385
(dp3386
g62
(dp3387
sg71
g3341
sg64
(lp3388
g57
(g78
g59
NtRp3389
(dp3390
g62
(dp3391
g82
g83
ssg71
g3385
sg64
(lp3392
g313
asbag57
(g78
g59
NtRp3393
(dp3394
g62
(dp3395
g89
g90
ssg71
g3385
sg64
(lp3396
S':'
asbag57
(g78
g59
NtRp3397
(dp3398
g62
(dp3399
sg71
g3385
sg64
(lp3400
g57
(g58
g59
NtRp3401
(dp3402
g62
(dp3403
g70
I3
ssg71
g3397
sg64
(lp3404
S''
asbasbasbag57
(g73
g59
NtRp3405
(dp3406
g62
(dp3407
sg71
g3341
sg64
(lp3408
g57
(g78
g59
NtRp3409
(dp3410
g62
(dp3411
g82
g83
ssg71
g3405
sg64
(lp3412
g334
asbag57
(g78
g59
NtRp3413
(dp3414
g62
(dp3415
g89
g90
ssg71
g3405
sg64
(lp3416
S':'
asbag57
(g78
g59
NtRp3417
(dp3418
g62
(dp3419
sg71
g3405
sg64
(lp3420
g57
(g58
g59
NtRp3421
(dp3422
g62
(dp3423
g70
I3
ssg71
g3417
sg64
(lp3424
S''
asbasbasbag57
(g73
g59
NtRp3425
(dp3426
g62
(dp3427
sg71
g3341
sg64
(lp3428
g57
(g78
g59
NtRp3429
(dp3430
g62
(dp3431
g82
g83
ssg71
g3425
sg64
(lp3432
g355
asbag57
(g78
g59
NtRp3433
(dp3434
g62
(dp3435
g89
g90
ssg71
g3425
sg64
(lp3436
S':'
asbag57
(g78
g59
NtRp3437
(dp3438
g62
(dp3439
sg71
g3425
sg64
(lp3440
g57
(g58
g59
NtRp3441
(dp3442
g62
(dp3443
g70
I3
ssg71
g3437
sg64
(lp3444
S''
asbasbasbag57
(g73
g59
NtRp3445
(dp3446
g62
(dp3447
sg71
g3341
sg64
(lp3448
g57
(g78
g59
NtRp3449
(dp3450
g62
(dp3451
g82
g83
ssg71
g3445
sg64
(lp3452
g376
asbag57
(g78
g59
NtRp3453
(dp3454
g62
(dp3455
g89
g90
ssg71
g3445
sg64
(lp3456
S':'
asbag57
(g78
g59
NtRp3457
(dp3458
g62
(dp3459
sg71
g3445
sg64
(lp3460
g57
(g58
g59
NtRp3461
(dp3462
g62
(dp3463
g70
I3
ssg71
g3457
sg64
(lp3464
S'/'
asbasbasbag57
(g73
g59
NtRp3465
(dp3466
g62
(dp3467
sg71
g3341
sg64
(lp3468
g57
(g78
g59
NtRp3469
(dp3470
g62
(dp3471
g82
g83
ssg71
g3465
sg64
(lp3472
g397
asbag57
(g78
g59
NtRp3473
(dp3474
g62
(dp3475
g89
g90
ssg71
g3465
sg64
(lp3476
S':'
asbag57
(g78
g59
NtRp3477
(dp3478
g62
(dp3479
sg71
g3465
sg64
(lp3480
g57
(g58
g59
NtRp3481
(dp3482
g62
(dp3483
g70
I3
ssg71
g3477
sg64
(lp3484
S''
asbasbasbag57
(g73
g59
NtRp3485
(dp3486
g62
(dp3487
sg71
g3341
sg64
(lp3488
g57
(g78
g59
NtRp3489
(dp3490
g62
(dp3491
g82
g83
ssg71
g3485
sg64
(lp3492
g418
asbag57
(g78
g59
NtRp3493
(dp3494
g62
(dp3495
g89
g90
ssg71
g3485
sg64
(lp3496
S':'
asbag57
(g78
g59
NtRp3497
(dp3498
g62
(dp3499
sg71
g3485
sg64
(lp3500
g57
(g58
g59
NtRp3501
(dp3502
g62
(dp3503
g70
I3
ssg71
g3497
sg64
(lp3504
S''
asbasbasbasbasbasbasbasbasbasbasbag57
(g73
g59
NtRp3505
(dp3506
g62
(dp3507
sg71
g3271
sg64
(lp3508
g57
(g78
g59
NtRp3509
(dp3510
g62
(dp3511
g82
g83
ssg71
g3505
sg64
(lp3512
S'files'
p3513
asbag57
(g78
g59
NtRp3514
(dp3515
g62
(dp3516
g89
g90
ssg71
g3505
sg64
(lp3517
S':'
asbag57
(g78
g59
NtRp3518
(dp3519
g62
(dp3520
sg71
g3505
sg64
(lp3521
g57
(g58
g59
NtRp3522
(dp3523
g62
(dp3524
g70
I5
ssg71
g3518
sg64
(lp3525
g57
(g66
g59
NtRp3526
(dp3527
g62
(dp3528
g70
I4
ssg71
Nsg64
(lp3529
sbasbasbasbag57
(g73
g59
NtRp3530
(dp3531
g62
(dp3532
sg71
g3271
sg64
(lp3533
g57
(g78
g59
NtRp3534
(dp3535
g62
(dp3536
g82
g83
ssg71
g3530
sg64
(lp3537
S'flash'
p3538
asbag57
(g78
g59
NtRp3539
(dp3540
g62
(dp3541
g89
g90
ssg71
g3530
sg64
(lp3542
S':'
asbag57
(g78
g59
NtRp3543
(dp3544
g62
(dp3545
sg71
g3530
sg64
(lp3546
g57
(g58
g59
NtRp3547
(dp3548
g62
(dp3549
g70
I5
ssg71
g3543
sg64
(lp3550
S''
asbasbasbag57
(g73
g59
NtRp3551
(dp3552
g62
(dp3553
sg71
g3271
sg64
(lp3554
g57
(g78
g59
NtRp3555
(dp3556
g62
(dp3557
g82
g83
ssg71
g3551
sg64
(lp3558
S'generic_patterns'
p3559
asbag57
(g78
g59
NtRp3560
(dp3561
g62
(dp3562
g89
g90
ssg71
g3551
sg64
(lp3563
S':'
asbag57
(g78
g59
NtRp3564
(dp3565
g62
(dp3566
sg71
g3551
sg64
(lp3567
g57
(g58
g59
NtRp3568
(dp3569
g62
(dp3570
g70
I5
ssg71
g3564
sg64
(lp3571
g57
(g66
g59
NtRp3572
(dp3573
g62
(dp3574
g70
I4
ssg71
Nsg64
(lp3575
g57
(g73
g59
NtRp3576
(dp3577
g62
(dp3578
sg71
g3572
sg64
(lp3579
g57
(g78
g59
NtRp3580
(dp3581
g62
(dp3582
sg71
g3576
sg64
(lp3583
g57
(g58
g59
NtRp3584
(dp3585
g62
(dp3586
g70
I4
ssg71
g3580
sg64
(lp3587
S'*'
asbasbasbasbasbasbasbag57
(g73
g59
NtRp3588
(dp3589
g62
(dp3590
sg71
g3271
sg64
(lp3591
g57
(g78
g59
NtRp3592
(dp3593
g62
(dp3594
g82
g83
ssg71
g3588
sg64
(lp3595
S'headers'
p3596
asbag57
(g78
g59
NtRp3597
(dp3598
g62
(dp3599
g89
g90
ssg71
g3588
sg64
(lp3600
S':'
asbag57
(g78
g59
NtRp3601
(dp3602
g62
(dp3603
sg71
g3588
sg64
(lp3604
g57
(g58
g59
NtRp3605
(dp3606
g62
(dp3607
g70
I5
ssg71
g3601
sg64
(lp3608
g57
(g66
g59
NtRp3609
(dp3610
g62
(dp3611
g70
I4
ssg71
Nsg64
(lp3612
g57
(g73
g59
NtRp3613
(dp3614
g62
(dp3615
sg71
g3609
sg64
(lp3616
g57
(g78
g59
NtRp3617
(dp3618
g62
(dp3619
g82
g83
ssg71
g3613
sg64
(lp3620
S'Cache-Control'
p3621
asbag57
(g78
g59
NtRp3622
(dp3623
g62
(dp3624
g89
g90
ssg71
g3613
sg64
(lp3625
S':'
asbag57
(g78
g59
NtRp3626
(dp3627
g62
(dp3628
sg71
g3613
sg64
(lp3629
g57
(g58
g59
NtRp3630
(dp3631
g62
(dp3632
g70
I4
ssg71
g3626
sg64
(lp3633
S'no-store, no-cache, must-revalidate, post-check=0, pre-check=0'
p3634
asbasbasbag57
(g73
g59
NtRp3635
(dp3636
g62
(dp3637
sg71
g3609
sg64
(lp3638
g57
(g78
g59
NtRp3639
(dp3640
g62
(dp3641
g82
g83
ssg71
g3635
sg64
(lp3642
S'Content-Type'
p3643
asbag57
(g78
g59
NtRp3644
(dp3645
g62
(dp3646
g89
g90
ssg71
g3635
sg64
(lp3647
S':'
asbag57
(g78
g59
NtRp3648
(dp3649
g62
(dp3650
sg71
g3635
sg64
(lp3651
g57
(g58
g59
NtRp3652
(dp3653
g62
(dp3654
g70
I4
ssg71
g3648
sg64
(lp3655
S'text/html; charset=utf-8'
p3656
asbasbasbag57
(g73
g59
NtRp3657
(dp3658
g62
(dp3659
sg71
g3609
sg64
(lp3660
g57
(g78
g59
NtRp3661
(dp3662
g62
(dp3663
g82
g83
ssg71
g3657
sg64
(lp3664
S'Expires'
p3665
asbag57
(g78
g59
NtRp3666
(dp3667
g62
(dp3668
g89
g90
ssg71
g3657
sg64
(lp3669
S':'
asbag57
(g78
g59
NtRp3670
(dp3671
g62
(dp3672
sg71
g3657
sg64
(lp3673
g57
(g58
g59
NtRp3674
(dp3675
g62
(dp3676
g70
I4
ssg71
g3670
sg64
(lp3677
S'Wed, 01 Feb 2012 19:39:24 GMT'
p3678
asbasbasbag57
(g73
g59
NtRp3679
(dp3680
g62
(dp3681
sg71
g3609
sg64
(lp3682
g57
(g78
g59
NtRp3683
(dp3684
g62
(dp3685
g82
g83
ssg71
g3679
sg64
(lp3686
S'Pragma'
p3687
asbag57
(g78
g59
NtRp3688
(dp3689
g62
(dp3690
g89
g90
ssg71
g3679
sg64
(lp3691
S':'
asbag57
(g78
g59
NtRp3692
(dp3693
g62
(dp3694
sg71
g3679
sg64
(lp3695
g57
(g58
g59
NtRp3696
(dp3697
g62
(dp3698
g70
I4
ssg71
g3692
sg64
(lp3699
S'no-cache'
p3700
asbasbasbag57
(g73
g59
NtRp3701
(dp3702
g62
(dp3703
sg71
g3609
sg64
(lp3704
g57
(g78
g59
NtRp3705
(dp3706
g62
(dp3707
g82
g83
ssg71
g3701
sg64
(lp3708
S'X-Powered-By'
p3709
asbag57
(g78
g59
NtRp3710
(dp3711
g62
(dp3712
g89
g90
ssg71
g3701
sg64
(lp3713
S':'
asbag57
(g78
g59
NtRp3714
(dp3715
g62
(dp3716
sg71
g3701
sg64
(lp3717
g57
(g58
g59
NtRp3718
(dp3719
g62
(dp3720
g70
I4
ssg71
g3714
sg64
(lp3721
S'web2py'
p3722
asbasbasbasbasbasbasbag57
(g73
g59
NtRp3723
(dp3724
g62
(dp3725
sg71
g3271
sg64
(lp3726
g57
(g78
g59
NtRp3727
(dp3728
g62
(dp3729
g82
g83
ssg71
g3723
sg64
(lp3730
S'menu'
p3731
asbag57
(g78
g59
NtRp3732
(dp3733
g62
(dp3734
g89
g90
ssg71
g3723
sg64
(lp3735
S':'
asbag57
(g78
g59
NtRp3736
(dp3737
g62
(dp3738
sg71
g3723
sg64
(lp3739
g57
(g58
g59
NtRp3740
(dp3741
g62
(dp3742
g70
I5
ssg71
g3736
sg64
(lp3743
g57
(g66
g59
NtRp3744
(dp3745
g62
(dp3746
g70
I4
ssg71
Nsg64
(lp3747
sbasbasbasbag57
(g73
g59
NtRp3748
(dp3749
g62
(dp3750
sg71
g3271
sg64
(lp3751
g57
(g78
g59
NtRp3752
(dp3753
g62
(dp3754
g82
g83
ssg71
g3748
sg64
(lp3755
S'meta'
p3756
asbag57
(g78
g59
NtRp3757
(dp3758
g62
(dp3759
g89
g90
ssg71
g3748
sg64
(lp3760
S':'
asbag57
(g78
g59
NtRp3761
(dp3762
g62
(dp3763
sg71
g3748
sg64
(lp3764
g57
(g58
g59
NtRp3765
(dp3766
g62
(dp3767
g70
I5
ssg71
g3761
sg64
(lp3768
g57
(g66
g59
NtRp3769
(dp3770
g62
(dp3771
g70
I4
ssg71
Nsg64
(lp3772
sbasbasbasbag57
(g73
g59
NtRp3773
(dp3774
g62
(dp3775
sg71
g3271
sg64
(lp3776
g57
(g78
g59
NtRp3777
(dp3778
g62
(dp3779
g82
g83
ssg71
g3773
sg64
(lp3780
S'postprocessing'
p3781
asbag57
(g78
g59
NtRp3782
(dp3783
g62
(dp3784
g89
g90
ssg71
g3773
sg64
(lp3785
S':'
asbag57
(g78
g59
NtRp3786
(dp3787
g62
(dp3788
sg71
g3773
sg64
(lp3789
g57
(g58
g59
NtRp3790
(dp3791
g62
(dp3792
g70
I5
ssg71
g3786
sg64
(lp3793
g57
(g66
g59
NtRp3794
(dp3795
g62
(dp3796
g70
I4
ssg71
Nsg64
(lp3797
sbasbasbasbag57
(g73
g59
NtRp3798
(dp3799
g62
(dp3800
sg71
g3271
sg64
(lp3801
g57
(g78
g59
NtRp3802
(dp3803
g62
(dp3804
g82
g83
ssg71
g3798
sg64
(lp3805
S'session_file'
p3806
asbag57
(g78
g59
NtRp3807
(dp3808
g62
(dp3809
g89
g90
ssg71
g3798
sg64
(lp3810
S':'
asbag57
(g78
g59
NtRp3811
(dp3812
g62
(dp3813
sg71
g3798
sg64
(lp3814
g57
(g58
g59
NtRp3815
(dp3816
g62
(dp3817
g70
I5
ssg71
g3811
sg64
(lp3818
S"<open file '/home/kaique/Projects/WebApps/web2py/applications/makebrand/sessions/127.0.0.1-e3ba017f-c4fb-45c9-8d16-b94cbdfde86f', mode 'rb+' at 0x8d4d968>"
p3819
asbasbasbag57
(g73
g59
NtRp3820
(dp3821
g62
(dp3822
sg71
g3271
sg64
(lp3823
g57
(g78
g59
NtRp3824
(dp3825
g62
(dp3826
g82
g83
ssg71
g3820
sg64
(lp3827
S'session_filename'
p3828
asbag57
(g78
g59
NtRp3829
(dp3830
g62
(dp3831
g89
g90
ssg71
g3820
sg64
(lp3832
S':'
asbag57
(g78
g59
NtRp3833
(dp3834
g62
(dp3835
sg71
g3820
sg64
(lp3836
g57
(g58
g59
NtRp3837
(dp3838
g62
(dp3839
g70
I5
ssg71
g3833
sg64
(lp3840
S'/home/kaique/Projects/WebApps/web2py/applications/makebrand/sessions/127.0.0.1-e3ba017f-c4fb-45c9-8d16-b94cbdfde86f'
p3841
asbasbasbag57
(g73
g59
NtRp3842
(dp3843
g62
(dp3844
sg71
g3271
sg64
(lp3845
g57
(g78
g59
NtRp3846
(dp3847
g62
(dp3848
g82
g83
ssg71
g3842
sg64
(lp3849
S'session_id'
p3850
asbag57
(g78
g59
NtRp3851
(dp3852
g62
(dp3853
g89
g90
ssg71
g3842
sg64
(lp3854
S':'
asbag57
(g78
g59
NtRp3855
(dp3856
g62
(dp3857
sg71
g3842
sg64
(lp3858
g57
(g58
g59
NtRp3859
(dp3860
g62
(dp3861
g70
I5
ssg71
g3855
sg64
(lp3862
S'127.0.0.1-e3ba017f-c4fb-45c9-8d16-b94cbdfde86f'
p3863
asbasbasbag57
(g73
g59
NtRp3864
(dp3865
g62
(dp3866
sg71
g3271
sg64
(lp3867
g57
(g78
g59
NtRp3868
(dp3869
g62
(dp3870
g82
g83
ssg71
g3864
sg64
(lp3871
S'session_id_name'
p3872
asbag57
(g78
g59
NtRp3873
(dp3874
g62
(dp3875
g89
g90
ssg71
g3864
sg64
(lp3876
S':'
asbag57
(g78
g59
NtRp3877
(dp3878
g62
(dp3879
sg71
g3864
sg64
(lp3880
g57
(g58
g59
NtRp3881
(dp3882
g62
(dp3883
g70
I5
ssg71
g3877
sg64
(lp3884
g3328
asbasbasbag57
(g73
g59
NtRp3885
(dp3886
g62
(dp3887
sg71
g3271
sg64
(lp3888
g57
(g78
g59
NtRp3889
(dp3890
g62
(dp3891
g82
g83
ssg71
g3885
sg64
(lp3892
S'session_locked'
p3893
asbag57
(g78
g59
NtRp3894
(dp3895
g62
(dp3896
g89
g90
ssg71
g3885
sg64
(lp3897
S':'
asbag57
(g78
g59
NtRp3898
(dp3899
g62
(dp3900
sg71
g3885
sg64
(lp3901
g57
(g58
g59
NtRp3902
(dp3903
g62
(dp3904
g70
I5
ssg71
g3898
sg64
(lp3905
g1515
asbasbasbag57
(g73
g59
NtRp3906
(dp3907
g62
(dp3908
sg71
g3271
sg64
(lp3909
g57
(g78
g59
NtRp3910
(dp3911
g62
(dp3912
g82
g83
ssg71
g3906
sg64
(lp3913
S'session_new'
p3914
asbag57
(g78
g59
NtRp3915
(dp3916
g62
(dp3917
g89
g90
ssg71
g3906
sg64
(lp3918
S':'
asbag57
(g78
g59
NtRp3919
(dp3920
g62
(dp3921
sg71
g3906
sg64
(lp3922
g57
(g58
g59
NtRp3923
(dp3924
g62
(dp3925
g70
I5
ssg71
g3919
sg64
(lp3926
g100
asbasbasbag57
(g73
g59
NtRp3927
(dp3928
g62
(dp3929
sg71
g3271
sg64
(lp3930
g57
(g78
g59
NtRp3931
(dp3932
g62
(dp3933
g82
g83
ssg71
g3927
sg64
(lp3934
S'status'
p3935
asbag57
(g78
g59
NtRp3936
(dp3937
g62
(dp3938
g89
g90
ssg71
g3927
sg64
(lp3939
S':'
asbag57
(g78
g59
NtRp3940
(dp3941
g62
(dp3942
sg71
g3927
sg64
(lp3943
g57
(g58
g59
NtRp3944
(dp3945
g62
(dp3946
g70
I5
ssg71
g3940
sg64
(lp3947
S'200'
p3948
asbasbasbag57
(g73
g59
NtRp3949
(dp3950
g62
(dp3951
sg71
g3271
sg64
(lp3952
g57
(g78
g59
NtRp3953
(dp3954
g62
(dp3955
g82
g83
ssg71
g3949
sg64
(lp3956
g2179
asbag57
(g78
g59
NtRp3957
(dp3958
g62
(dp3959
g89
g90
ssg71
g3949
sg64
(lp3960
S':'
asbag57
(g78
g59
NtRp3961
(dp3962
g62
(dp3963
sg71
g3949
sg64
(lp3964
g57
(g58
g59
NtRp3965
(dp3966
g62
(dp3967
g70
I5
ssg71
g3961
sg64
(lp3968
g2192
asbasbasbag57
(g73
g59
NtRp3969
(dp3970
g62
(dp3971
sg71
g3271
sg64
(lp3972
g57
(g78
g59
NtRp3973
(dp3974
g62
(dp3975
g82
g83
ssg71
g3969
sg64
(lp3976
S'view'
p3977
asbag57
(g78
g59
NtRp3978
(dp3979
g62
(dp3980
g89
g90
ssg71
g3969
sg64
(lp3981
S':'
asbag57
(g78
g59
NtRp3982
(dp3983
g62
(dp3984
sg71
g3969
sg64
(lp3985
g57
(g58
g59
NtRp3986
(dp3987
g62
(dp3988
g70
I5
ssg71
g3982
sg64
(lp3989
S'project/new.html'
p3990
asbasbasbasbasbsS'locals'
p3991
(dp3992
S'Service'
p3993
S"<class 'gluon.tools.Service'>"
p3994
sS'OBJECT'
p3995
S"<class 'gluon.html.OBJECT'>"
p3996
sS'SQLDB'
p3997
S"<class 'gluon.dal.DAL'>"
p3998
sg2922
S"<Storage {'last_query': 'db.project.id>0', '_use...ect/1]': '9288e21b-a37b-412f-b6a9-b366d299cb71'}>"
p3999
sS'LINK'
p4000
S"<class 'gluon.html.LINK'>"
p4001
sS'BR'
p4002
S"<class 'gluon.html.BR'>"
p4003
sS'local_import'
p4004
S'<function <lambda>>'
p4005
sS'OPTGROUP'
p4006
S"<class 'gluon.html.OPTGROUP'>"
p4007
sS'PRE'
p4008
S"<class 'gluon.html.PRE'>"
p4009
sS'IS_INT_IN_RANGE'
p4010
S"<class 'gluon.validators.IS_INT_IN_RANGE'>"
p4011
sS'IS_LOWER'
p4012
S"<class 'gluon.validators.IS_LOWER'>"
p4013
sS'IS_STRONG'
p4014
S"<class 'gluon.validators.IS_STRONG'>"
p4015
sS'cache'
p4016
S'<gluon.cache.Cache object>'
p4017
sS'IS_IN_DB'
p4018
S"<class 'gluon.validators.IS_IN_DB'>"
p4019
sS'TAG'
p4020
S'<gluon.html.__TAG__ object>'
p4021
sS'SQLField'
p4022
S"<class 'gluon.dal.Field'>"
p4023
sS'mail'
p4024
S'<gluon.tools.Mail object>'
p4025
sS'BODY'
p4026
S"<class 'gluon.html.BODY'>"
p4027
sS'IS_DATE_IN_RANGE'
p4028
S"<class 'gluon.validators.IS_DATE_IN_RANGE'>"
p4029
sS'IFRAME'
p4030
S"<class 'gluon.html.IFRAME'>"
p4031
sS'URL'
p4032
S'<function URL>'
p4033
sS'__file__'
p4034
S"'/home/kaique/Projects/WebApps/web2py/applications/makebrand/models/db.py'"
p4035
sS'db'
p4036
S"<DAL {'auth_event': <Table {'origin': <gluon.dal... '_id': <gluon.dal.Field object at 0x966060c>}>}>"
p4037
sS'auth'
p4038
S'<gluon.tools.Auth object>'
p4039
sS'P'
S"<class 'gluon.html.P'>"
p4040
sS'TFOOT'
p4041
S"<class 'gluon.html.TFOOT'>"
p4042
sS'XHTML'
p4043
S"<class 'gluon.html.XHTML'>"
p4044
sS'ON'
p4045
g1515
sS'OL'
p4046
S"<class 'gluon.html.OL'>"
p4047
sS'TEXTAREA'
p4048
S"<class 'gluon.html.TEXTAREA'>"
p4049
sS'MENU'
p4050
S"<class 'gluon.html.MENU'>"
p4051
sS'EM'
p4052
S"<class 'gluon.html.EM'>"
p4053
sS'CODE'
p4054
S"<class 'gluon.html.CODE'>"
p4055
sS'HTTP'
p4056
S"<class 'gluon.http.HTTP'>"
p4057
sS'HR'
p4058
S"<class 'gluon.html.HR'>"
p4059
sS'IS_DATETIME'
p4060
S"<class 'gluon.validators.IS_DATETIME'>"
p4061
sS'STYLE'
p4062
S"<class 'gluon.html.STYLE'>"
p4063
sS'LABEL'
p4064
S"<class 'gluon.html.LABEL'>"
p4065
sS'META'
p4066
S"<class 'gluon.html.META'>"
p4067
sS'plugins'
p4068
S'<gluon.tools.PluginManager object>'
p4069
sS'SELECT'
p4070
S"<class 'gluon.html.SELECT'>"
p4071
sS'use_janrain'
p4072
S'<function use_janrain>'
p4073
sS'CENTER'
p4074
S"<class 'gluon.html.CENTER'>"
p4075
sS'prettydate'
p4076
S'<function prettydate>'
p4077
sS'Crud'
p4078
S"<class 'gluon.tools.Crud'>"
p4079
sS'Auth'
p4080
S"<class 'gluon.tools.Auth'>"
p4081
sS'__builtins__'
p4082
S"{'ArithmeticError': <type 'exceptions.ArithmeticError'>, 'AssertionError': <type 'exceptions.AssertionError'>, 'AttributeError': <type 'exceptions.AttributeError'>, 'BaseException': <type 'exceptions.BaseException'>, 'BufferError': <type 'exceptions.BufferError'>, 'BytesWarning': <type 'exceptions.BytesWarning'>, 'DeprecationWarning': <type 'exceptions.DeprecationWarning'>, 'EOFError': <type 'exceptions.EOFError'>, 'Ellipsis': Ellipsis, 'EnvironmentError': <type 'exceptions.EnvironmentError'>, ...}"
p4083
sS'HTML'
p4084
S"<class 'gluon.html.HTML'>"
p4085
sS'SQLFORM'
p4086
S"<class 'gluon.sqlhtml.SQLFORM'>"
p4087
sS'LOAD'
p4088
S'<function LOAD>'
p4089
sS'redirect'
p4090
S'<function redirect>'
p4091
sS'FIELDSET'
p4092
S"<class 'gluon.html.FIELDSET'>"
p4093
sS'IS_EQUAL_TO'
p4094
S"<class 'gluon.validators.IS_EQUAL_TO'>"
p4095
sS'embed64'
p4096
S'<function embed64>'
p4097
sS'IS_LIST_OF'
p4098
S"<class 'gluon.validators.IS_LIST_OF'>"
p4099
sS'INPUT'
p4100
S"<class 'gluon.html.INPUT'>"
p4101
sS'EMBED'
p4102
S"<class 'gluon.html.EMBED'>"
p4103
sS'FORM'
p4104
S"<class 'gluon.html.FORM'>"
p4105
sS'H2'
p4106
S"<class 'gluon.html.H2'>"
p4107
sS'H3'
p4108
S"<class 'gluon.html.H3'>"
p4109
sS'BUTTON'
p4110
S"<class 'gluon.html.BUTTON'>"
p4111
sS'H1'
p4112
S"<class 'gluon.html.H1'>"
p4113
sS'H6'
p4114
S"<class 'gluon.html.H6'>"
p4115
sS'H4'
p4116
S"<class 'gluon.html.H4'>"
p4117
sS'H5'
p4118
S"<class 'gluon.html.H5'>"
p4119
sS'UL'
p4120
S"<class 'gluon.html.UL'>"
p4121
sS'IS_UPPER'
p4122
S"<class 'gluon.validators.IS_UPPER'>"
p4123
sS'xmlescape'
p4124
S'<function xmlescape>'
p4125
sS'IS_TIME'
p4126
S"<class 'gluon.validators.IS_TIME'>"
p4127
sS'OPTION'
p4128
S"<class 'gluon.html.OPTION'>"
p4129
sS'TITLE'
p4130
S"<class 'gluon.html.TITLE'>"
p4131
sS'CRYPT'
p4132
S"<class 'gluon.validators.CRYPT'>"
p4133
sS'IS_EMPTY_OR'
p4134
S"<class 'gluon.validators.IS_EMPTY_OR'>"
p4135
sS'MARKMIN'
p4136
S"<class 'gluon.html.MARKMIN'>"
p4137
sS'COL'
p4138
S"<class 'gluon.html.COL'>"
p4139
sS'service'
p4140
S'<gluon.tools.Service object>'
p4141
sS'SCRIPT'
p4142
S"<class 'gluon.html.SCRIPT'>"
p4143
sS'TABLE'
p4144
S"<class 'gluon.html.TABLE'>"
p4145
sS'IS_IPV4'
p4146
S"<class 'gluon.validators.IS_IPV4'>"
p4147
sS'IS_LENGTH'
p4148
S"<class 'gluon.validators.IS_LENGTH'>"
p4149
sS'XML'
p4150
S"<class 'gluon.html.XML'>"
p4151
sS'B'
S"<class 'gluon.html.B'>"
p4152
sS'IMG'
p4153
S"<class 'gluon.html.IMG'>"
p4154
sS'SQLTABLE'
p4155
S"<class 'gluon.sqlhtml.SQLTABLE'>"
p4156
sS'IS_MATCH'
p4157
S"<class 'gluon.validators.IS_MATCH'>"
p4158
sS'IS_ALPHANUMERIC'
p4159
S"<class 'gluon.validators.IS_ALPHANUMERIC'>"
p4160
sS'SPAN'
p4161
S"<class 'gluon.html.SPAN'>"
p4162
sS'IS_SLUG'
p4163
S"<class 'gluon.validators.IS_SLUG'>"
p4164
sS'CLEANUP'
p4165
S"<class 'gluon.validators.CLEANUP'>"
p4166
sS'IS_DATE'
p4167
S"<class 'gluon.validators.IS_DATE'>"
p4168
sS'IS_EMAIL'
p4169
S"<class 'gluon.validators.IS_EMAIL'>"
p4170
sS'IS_NOT_EMPTY'
p4171
S"<class 'gluon.validators.IS_NOT_EMPTY'>"
p4172
sS'IS_FLOAT_IN_RANGE'
p4173
S"<class 'gluon.validators.IS_FLOAT_IN_RANGE'>"
p4174
sS'BEAUTIFY'
p4175
S"<class 'gluon.html.BEAUTIFY'>"
p4176
sS'TBODY'
p4177
S"<class 'gluon.html.TBODY'>"
p4178
sS'CAT'
p4179
S"<class 'gluon.html.CAT'>"
p4180
sS'Field'
p4181
S"<class 'gluon.dal.Field'>"
p4182
sS'DIV'
p4183
S"<class 'gluon.html.DIV'>"
p4184
sS'LEGEND'
p4185
S"<class 'gluon.html.LEGEND'>"
p4186
sS'COLGROUP'
p4187
S"<class 'gluon.html.COLGROUP'>"
p4188
sS'DAL'
p4189
S"<class 'gluon.dal.DAL'>"
p4190
sS'TT'
p4191
S"<class 'gluon.html.TT'>"
p4192
sS'TR'
p4193
S"<class 'gluon.html.TR'>"
p4194
sS'LI'
p4195
S"<class 'gluon.html.LI'>"
p4196
sS'TH'
p4197
S"<class 'gluon.html.TH'>"
p4198
sS'TD'
p4199
S"<class 'gluon.html.TD'>"
p4200
sS'PluginManager'
p4201
S"<class 'gluon.tools.PluginManager'>"
p4202
sS'IS_URL'
p4203
S"<class 'gluon.validators.IS_URL'>"
p4204
sS'A'
S"<class 'gluon.html.A'>"
p4205
sS'HEAD'
p4206
S"<class 'gluon.html.HEAD'>"
p4207
sS'IS_DATETIME_IN_RANGE'
p4208
S"<class 'gluon.validators.IS_DATETIME_IN_RANGE'>"
p4209
sS'IS_IMAGE'
p4210
S"<class 'gluon.validators.IS_IMAGE'>"
p4211
sS'I'
S"<class 'gluon.html.I'>"
p4212
sS'crud'
p4213
S'<gluon.tools.Crud object>'
p4214
sS'signature'
p4215
S"<Table {'ALL': <gluon.dal.SQLALL object at 0x950...c>, 'id': <gluon.dal.Field object at 0x950104c>}>"
p4216
sS'IS_NOT_IN_DB'
p4217
S"<class 'gluon.validators.IS_NOT_IN_DB'>"
p4218
sg3266
S"<Storage {'status': 200, 'body': <cStringIO.Stri...10614>, 'files': [], 'view': 'project/new.html'}>"
p4219
sS'THEAD'
p4220
S"<class 'gluon.html.THEAD'>"
p4221
sS'IS_NULL_OR'
p4222
S"<class 'gluon.validators.IS_EMPTY_OR'>"
p4223
sg56
S"<Storage {'body': <cStringIO.StringO object at 0..._vars': <Storage {}>, 'post_vars': <Storage {}>}>"
p4224
sS'IS_EXPR'
p4225
S"<class 'gluon.validators.IS_EXPR'>"
p4226
sS'IS_IN_SET'
p4227
S"<class 'gluon.validators.IS_IN_SET'>"
p4228
sS'IS_UPLOAD_FILENAME'
p4229
S"<class 'gluon.validators.IS_UPLOAD_FILENAME'>"
p4230
sS'IS_DECIMAL_IN_RANGE'
p4231
S"<class 'gluon.validators.IS_DECIMAL_IN_RANGE'>"
p4232
sS'T'
S'<gluon.languages.translator object>'
p4233
sssS'traceback'
p4234
S'Traceback (most recent call last):\n  File "/home/kaique/Projects/WebApps/web2py/gluon/restricted.py", line 204, in restricted\n    exec ccode in environment\n  File "/home/kaique/Projects/WebApps/web2py/applications/makebrand/models/db.py", line 117, in <module>\n    db.project.client_id.widget = SQLFORM.widgets.options.widget(project, name)\nNameError: name \'project\' is not defined\n'
p4235
s.