(dp1
S'output'
p2
S"<type 'exceptions.SyntaxError'> invalid syntax (db.py, line 103)"
p3
sS'layer'
p4
S'/home/kaique/Projects/WebApps/web2py/applications/makebrand/models/db.py'
p5
sS'code'
p6
S"# -*- coding: utf-8 -*-\n\n#########################################################################\n## This scaffolding model makes your app work on Google App Engine too\n## File is released under public domain and you can use without limitations\n#########################################################################\n\n## if SSL/HTTPS is properly configured and you want all HTTP requests to\n## be redirected to HTTPS, uncomment the line below:\n# request.requires_https()\n\nif not request.env.web2py_runtime_gae:\n    ## if NOT running on Google App Engine use SQLite or other DB\n    db = DAL('sqlite://storage.sqlite')\nelse:\n    ## connect to Google BigTable (optional 'google:datastore://namespace')\n    db = DAL('google:datastore')\n    ## store sessions and tickets there\n    session.connect(request, response, db = db)\n    ## or store session in Memcache, Redis, etc.\n    ## from gluon.contrib.memdb import MEMDB\n    ## from google.appengine.api.memcache import Client\n    ## session.connect(request, response, db = MEMDB(Client()))\n\n## by default give a view/generic.extension to all actions from localhost\n## none otherwise. a pattern can be 'controller/function.extension'\nresponse.generic_patterns = ['*'] if request.is_local else []\n## (optional) optimize handling of static files\n# response.optimize_css = 'concat,minify,inline'\n# response.optimize_js = 'concat,minify,inline'\n\n#########################################################################\n## Here is sample code if you need for\n## - email capabilities\n## - authentication (registration, login, logout, ... )\n## - authorization (role based authorization)\n## - services (xml, csv, json, xmlrpc, jsonrpc, amf, rss)\n## - old style crud actions\n## (more options discussed in gluon/tools.py)\n#########################################################################\n\nfrom gluon.tools import Auth, Crud, Service, PluginManager, prettydate\nauth = Auth(db, hmac_key=Auth.get_or_create_key())\ncrud, service, plugins = Crud(db), Service(), PluginManager()\n\n## create all tables needed by auth if not custom tables\nauth.define_tables()\n\n## configure email\nmail=auth.settings.mailer\nmail.settings.server = 'logging' or 'smtp.gmail.com:587'\nmail.settings.sender = 'you@gmail.com'\nmail.settings.login = 'username:password'\n\n## configure auth policy\nauth.settings.registration_requires_verification = False\nauth.settings.registration_requires_approval = False\nauth.settings.reset_password_requires_verification = True\n\n## if you need to use OpenID, Facebook, MySpace, Twitter, Linkedin, etc.\n## register with janrain.com, write your domain:api_key in private/janrain.key\nfrom gluon.contrib.login_methods.rpx_account import use_janrain\nuse_janrain(auth,filename='private/janrain.key')\n\n#########################################################################\n## Define your tables below (or better in another model file) for example\n##\n## >>> db.define_table('mytable',Field('myfield','string'))\n##\n## Fields can be 'string','text','password','integer','double','boolean'\n##       'date','time','datetime','blob','upload', 'reference TABLENAME'\n## There is an implicit 'id integer autoincrement' field\n## Consult manual for more options, validators, etc.\n##\n## More API examples for controllers:\n##\n## >>> db.mytable.insert(myfield='value')\n## >>> rows=db(db.mytable.myfield=='value').select(db.mytable.ALL)\n## >>> for row in rows: print row.id, row.myfield\n#########################################################################\n\nsignature = db.Table(db, 'signature',\n\t\t\t\t\t\tField('created_on', 'datetime', default=request.now),\n\t\t\t\t\t\tField('created_by', db.auth_user, default=auth.user_id),\t\t\t\n\t\t\t\t\t\tField('updated_on', 'datetime', default=request.now),\n\t\t\t\t\t\tField('updated_by', db.auth_user, default=auth.user_id)\t\t\t\n\t\t\t\t\t)\n\t\t\t\t\t\n# Briefing project table\ndb.define_table('project', \n\t\t\t\tField('name', 'string', required=True),\n\t\t\t\tField('description', 'text', required=True),\n\t\t\t\tField('terminated', 'boolean', required=True),\n\t\t\t\tField('user_id', db.auth_user, default= auth.user_id, required=True)\n\t\t\t\t, signature)\n\n# Briefing sub project table\ndb.define_table('subproject', \n\t\t\t\tField('name', 'string', required=True),\n\t\t\t\tField('description', 'text', required=True),\n\t\t\t\tField('visbility', 'boolean', required=True),\n\t\t\t\tField('project_id', db.project, required=True)\n\t\t\t\tField('user_id', db.auth.user_id, default= auth.user_id, required=True),\n\t\t\t\t, signature)\n\n# Briefing answer table\ndb.define_table('answer', \n\t\t\t\tField('name', 'string', required=True),\n\t\t\t\tField('description', 'text', required=True),\n\t\t\t\tField('visbility', 'boolean', required=True),\n\t\t\t\tField('project_id', db.project, required=True),\n\t\t\t\tField('subproject_id', db.project, required=True),\n\t\t\t\tField('user_id', db.auth.user_id, default= auth.user_id, required=True),\n\t\t\t\t, signature)\n\n# Briefing question table\ndb.define_table('question', \n\t\t\t\tField('name', 'string', required=True),\n\t\t\t\tField('description', 'text', required=True),\n\t\t\t\tField('visbility', 'boolean', required=True),\n\t\t\t\tField('project_id', db.project, required=True),\n\t\t\t\tField('subproject_id', db.project, required=True),\n\t\t\t\tField('user_id', db.auth.user_id, default= auth.user_id, required=True),\n\t\t\t\t, signature)\n"
p7
sS'snapshot'
p8
(dp9
S'exception'
p10
(dp11
S'__getslice__'
p12
S"<method-wrapper '__getslice__' of exceptions.SyntaxError object>"
p13
sS'text'
p14
S'"\\t\\t\\t\\tField(\'user_id\', db.auth.user_id, default= auth.user_id, required=True),\\n"'
p15
sS'__str__'
p16
S"<method-wrapper '__str__' of exceptions.SyntaxError object>"
p17
sS'__reduce__'
p18
S'<built-in method __reduce__ of exceptions.SyntaxError object>'
p19
sS'__dict__'
p20
S'{}'
p21
sS'__sizeof__'
p22
S'<built-in method __sizeof__ of exceptions.SyntaxError object>'
p23
sS'__init__'
p24
S"<method-wrapper '__init__' of exceptions.SyntaxError object>"
p25
sS'__setattr__'
p26
S"<method-wrapper '__setattr__' of exceptions.SyntaxError object>"
p27
sS'__reduce_ex__'
p28
S'<built-in method __reduce_ex__ of exceptions.SyntaxError object>'
p29
sS'__new__'
p30
S'<built-in method __new__ of type object>'
p31
sS'__format__'
p32
S'<built-in method __format__ of exceptions.SyntaxError object>'
p33
sS'__class__'
p34
S"<type 'exceptions.SyntaxError'>"
p35
sS'filename'
p36
S"'/home/kaique/Projects/WebApps/web2py/applications/makebrand/models/db.py'"
p37
sS'lineno'
p38
S'103'
p39
sS'msg'
p40
S"'invalid syntax'"
p41
sS'__doc__'
p42
S"'Invalid syntax.'"
p43
sS'__getitem__'
p44
S"<method-wrapper '__getitem__' of exceptions.SyntaxError object>"
p45
sS'__setstate__'
p46
S'<built-in method __setstate__ of exceptions.SyntaxError object>'
p47
sS'__getattribute__'
p48
S"<method-wrapper '__getattribute__' of exceptions.SyntaxError object>"
p49
sS'print_file_and_line'
p50
S'None'
p51
sS'args'
p52
S'(\'invalid syntax\', (\'/home/kaique/Projects/WebApps/web2py/applications/makebrand/models/db.py\', 103, 9, "\\t\\t\\t\\tField(\'user_id\', db.auth.user_id, default= auth.user_id, required=True),\\n"))'
p53
sS'__subclasshook__'
p54
S'<built-in method __subclasshook__ of type object>'
p55
sS'offset'
p56
S'9'
sS'__unicode__'
p57
S'<built-in method __unicode__ of exceptions.SyntaxError object>'
p58
sS'__delattr__'
p59
S"<method-wrapper '__delattr__' of exceptions.SyntaxError object>"
p60
sS'__repr__'
p61
S"<method-wrapper '__repr__' of exceptions.SyntaxError object>"
p62
sS'__hash__'
p63
S"<method-wrapper '__hash__' of exceptions.SyntaxError object>"
p64
ssS'evalue'
p65
S'invalid syntax (db.py, line 103)'
p66
sS'request'
p67
ccopy_reg
_reconstructor
p68
(cgluon.html
BEAUTIFY
p69
c__builtin__
object
p70
NtRp71
(dp72
S'attributes'
p73
(dp74
sS'components'
p75
(lp76
g68
(cgluon.html
TABLE
p77
g70
NtRp78
(dp79
g73
(dp80
S'level'
p81
I5
ssS'parent'
p82
Nsg75
(lp83
g68
(cgluon.html
TR
p84
g70
NtRp85
(dp86
g73
(dp87
sg82
g78
sg75
(lp88
g68
(cgluon.html
TD
p89
g70
NtRp90
(dp91
g73
(dp92
S'_style'
p93
S'font-weight:bold;vertical-align:top'
p94
ssg82
g85
sg75
(lp95
S'ajax'
p96
asbag68
(g89
g70
NtRp97
(dp98
g73
(dp99
S'_valign'
p100
S'top'
p101
ssg82
g85
sg75
(lp102
S':'
asbag68
(g89
g70
NtRp103
(dp104
g73
(dp105
sg82
g85
sg75
(lp106
g68
(g69
g70
NtRp107
(dp108
g73
(dp109
g81
I5
ssg82
g103
sg75
(lp110
S'False'
p111
asbasbasbag68
(g84
g70
NtRp112
(dp113
g73
(dp114
sg82
g78
sg75
(lp115
g68
(g89
g70
NtRp116
(dp117
g73
(dp118
g93
g94
ssg82
g112
sg75
(lp119
S'application'
p120
asbag68
(g89
g70
NtRp121
(dp122
g73
(dp123
g100
g101
ssg82
g112
sg75
(lp124
S':'
asbag68
(g89
g70
NtRp125
(dp126
g73
(dp127
sg82
g112
sg75
(lp128
g68
(g69
g70
NtRp129
(dp130
g73
(dp131
g81
I5
ssg82
g125
sg75
(lp132
S'makebrand'
p133
asbasbasbag68
(g84
g70
NtRp134
(dp135
g73
(dp136
sg82
g78
sg75
(lp137
g68
(g89
g70
NtRp138
(dp139
g73
(dp140
g93
g94
ssg82
g134
sg75
(lp141
g52
asbag68
(g89
g70
NtRp142
(dp143
g73
(dp144
g100
g101
ssg82
g134
sg75
(lp145
S':'
asbag68
(g89
g70
NtRp146
(dp147
g73
(dp148
sg82
g134
sg75
(lp149
g68
(g69
g70
NtRp150
(dp151
g73
(dp152
g81
I5
ssg82
g146
sg75
(lp153
g68
(g77
g70
NtRp154
(dp155
g73
(dp156
g81
I4
ssg82
Nsg75
(lp157
sbasbasbasbag68
(g84
g70
NtRp158
(dp159
g73
(dp160
sg82
g78
sg75
(lp161
g68
(g89
g70
NtRp162
(dp163
g73
(dp164
g93
g94
ssg82
g158
sg75
(lp165
S'body'
p166
asbag68
(g89
g70
NtRp167
(dp168
g73
(dp169
g100
g101
ssg82
g158
sg75
(lp170
S':'
asbag68
(g89
g70
NtRp171
(dp172
g73
(dp173
sg82
g158
sg75
(lp174
g68
(g69
g70
NtRp175
(dp176
g73
(dp177
g81
I5
ssg82
g171
sg75
(lp178
S'<cStringIO.StringO object at 0x9e1ae80>'
p179
asbasbasbag68
(g84
g70
NtRp180
(dp181
g73
(dp182
sg82
g78
sg75
(lp183
g68
(g89
g70
NtRp184
(dp185
g73
(dp186
g93
g94
ssg82
g180
sg75
(lp187
S'client'
p188
asbag68
(g89
g70
NtRp189
(dp190
g73
(dp191
g100
g101
ssg82
g180
sg75
(lp192
S':'
asbag68
(g89
g70
NtRp193
(dp194
g73
(dp195
sg82
g180
sg75
(lp196
g68
(g69
g70
NtRp197
(dp198
g73
(dp199
g81
I5
ssg82
g193
sg75
(lp200
S'127.0.0.1'
p201
asbasbasbag68
(g84
g70
NtRp202
(dp203
g73
(dp204
sg82
g78
sg75
(lp205
g68
(g89
g70
NtRp206
(dp207
g73
(dp208
g93
g94
ssg82
g202
sg75
(lp209
S'controller'
p210
asbag68
(g89
g70
NtRp211
(dp212
g73
(dp213
g100
g101
ssg82
g202
sg75
(lp214
S':'
asbag68
(g89
g70
NtRp215
(dp216
g73
(dp217
sg82
g202
sg75
(lp218
g68
(g69
g70
NtRp219
(dp220
g73
(dp221
g81
I5
ssg82
g215
sg75
(lp222
S'default'
p223
asbasbasbag68
(g84
g70
NtRp224
(dp225
g73
(dp226
sg82
g78
sg75
(lp227
g68
(g89
g70
NtRp228
(dp229
g73
(dp230
g93
g94
ssg82
g224
sg75
(lp231
S'cookies'
p232
asbag68
(g89
g70
NtRp233
(dp234
g73
(dp235
g100
g101
ssg82
g224
sg75
(lp236
S':'
asbag68
(g89
g70
NtRp237
(dp238
g73
(dp239
sg82
g224
sg75
(lp240
g68
(g69
g70
NtRp241
(dp242
g73
(dp243
g81
I5
ssg82
g237
sg75
(lp244
g68
(g77
g70
NtRp245
(dp246
g73
(dp247
g81
I4
ssg82
Nsg75
(lp248
g68
(g84
g70
NtRp249
(dp250
g73
(dp251
sg82
g245
sg75
(lp252
g68
(g89
g70
NtRp253
(dp254
g73
(dp255
g93
g94
ssg82
g249
sg75
(lp256
S'session_id_makebrand'
p257
asbag68
(g89
g70
NtRp258
(dp259
g73
(dp260
g100
g101
ssg82
g249
sg75
(lp261
S':'
asbag68
(g89
g70
NtRp262
(dp263
g73
(dp264
sg82
g249
sg75
(lp265
g68
(g69
g70
NtRp266
(dp267
g73
(dp268
g81
I4
ssg82
g262
sg75
(lp269
g68
(g77
g70
NtRp270
(dp271
g73
(dp272
g81
I3
ssg82
Nsg75
(lp273
g68
(g84
g70
NtRp274
(dp275
g73
(dp276
sg82
g270
sg75
(lp277
g68
(g89
g70
NtRp278
(dp279
g73
(dp280
g93
g94
ssg82
g274
sg75
(lp281
S'comment'
p282
asbag68
(g89
g70
NtRp283
(dp284
g73
(dp285
g100
g101
ssg82
g274
sg75
(lp286
S':'
asbag68
(g89
g70
NtRp287
(dp288
g73
(dp289
sg82
g274
sg75
(lp290
g68
(g69
g70
NtRp291
(dp292
g73
(dp293
g81
I3
ssg82
g287
sg75
(lp294
S''
asbasbasbag68
(g84
g70
NtRp295
(dp296
g73
(dp297
sg82
g270
sg75
(lp298
g68
(g89
g70
NtRp299
(dp300
g73
(dp301
g93
g94
ssg82
g295
sg75
(lp302
S'domain'
p303
asbag68
(g89
g70
NtRp304
(dp305
g73
(dp306
g100
g101
ssg82
g295
sg75
(lp307
S':'
asbag68
(g89
g70
NtRp308
(dp309
g73
(dp310
sg82
g295
sg75
(lp311
g68
(g69
g70
NtRp312
(dp313
g73
(dp314
g81
I3
ssg82
g308
sg75
(lp315
S''
asbasbasbag68
(g84
g70
NtRp316
(dp317
g73
(dp318
sg82
g270
sg75
(lp319
g68
(g89
g70
NtRp320
(dp321
g73
(dp322
g93
g94
ssg82
g316
sg75
(lp323
S'expires'
p324
asbag68
(g89
g70
NtRp325
(dp326
g73
(dp327
g100
g101
ssg82
g316
sg75
(lp328
S':'
asbag68
(g89
g70
NtRp329
(dp330
g73
(dp331
sg82
g316
sg75
(lp332
g68
(g69
g70
NtRp333
(dp334
g73
(dp335
g81
I3
ssg82
g329
sg75
(lp336
S''
asbasbasbag68
(g84
g70
NtRp337
(dp338
g73
(dp339
sg82
g270
sg75
(lp340
g68
(g89
g70
NtRp341
(dp342
g73
(dp343
g93
g94
ssg82
g337
sg75
(lp344
S'httponly'
p345
asbag68
(g89
g70
NtRp346
(dp347
g73
(dp348
g100
g101
ssg82
g337
sg75
(lp349
S':'
asbag68
(g89
g70
NtRp350
(dp351
g73
(dp352
sg82
g337
sg75
(lp353
g68
(g69
g70
NtRp354
(dp355
g73
(dp356
g81
I3
ssg82
g350
sg75
(lp357
S''
asbasbasbag68
(g84
g70
NtRp358
(dp359
g73
(dp360
sg82
g270
sg75
(lp361
g68
(g89
g70
NtRp362
(dp363
g73
(dp364
g93
g94
ssg82
g358
sg75
(lp365
S'max-age'
p366
asbag68
(g89
g70
NtRp367
(dp368
g73
(dp369
g100
g101
ssg82
g358
sg75
(lp370
S':'
asbag68
(g89
g70
NtRp371
(dp372
g73
(dp373
sg82
g358
sg75
(lp374
g68
(g69
g70
NtRp375
(dp376
g73
(dp377
g81
I3
ssg82
g371
sg75
(lp378
S''
asbasbasbag68
(g84
g70
NtRp379
(dp380
g73
(dp381
sg82
g270
sg75
(lp382
g68
(g89
g70
NtRp383
(dp384
g73
(dp385
g93
g94
ssg82
g379
sg75
(lp386
S'path'
p387
asbag68
(g89
g70
NtRp388
(dp389
g73
(dp390
g100
g101
ssg82
g379
sg75
(lp391
S':'
asbag68
(g89
g70
NtRp392
(dp393
g73
(dp394
sg82
g379
sg75
(lp395
g68
(g69
g70
NtRp396
(dp397
g73
(dp398
g81
I3
ssg82
g392
sg75
(lp399
S''
asbasbasbag68
(g84
g70
NtRp400
(dp401
g73
(dp402
sg82
g270
sg75
(lp403
g68
(g89
g70
NtRp404
(dp405
g73
(dp406
g93
g94
ssg82
g400
sg75
(lp407
S'secure'
p408
asbag68
(g89
g70
NtRp409
(dp410
g73
(dp411
g100
g101
ssg82
g400
sg75
(lp412
S':'
asbag68
(g89
g70
NtRp413
(dp414
g73
(dp415
sg82
g400
sg75
(lp416
g68
(g69
g70
NtRp417
(dp418
g73
(dp419
g81
I3
ssg82
g413
sg75
(lp420
S''
asbasbasbag68
(g84
g70
NtRp421
(dp422
g73
(dp423
sg82
g270
sg75
(lp424
g68
(g89
g70
NtRp425
(dp426
g73
(dp427
g93
g94
ssg82
g421
sg75
(lp428
S'version'
p429
asbag68
(g89
g70
NtRp430
(dp431
g73
(dp432
g100
g101
ssg82
g421
sg75
(lp433
S':'
asbag68
(g89
g70
NtRp434
(dp435
g73
(dp436
sg82
g421
sg75
(lp437
g68
(g69
g70
NtRp438
(dp439
g73
(dp440
g81
I3
ssg82
g434
sg75
(lp441
S''
asbasbasbasbasbasbasbasbasbasbasbag68
(g84
g70
NtRp442
(dp443
g73
(dp444
sg82
g78
sg75
(lp445
g68
(g89
g70
NtRp446
(dp447
g73
(dp448
g93
g94
ssg82
g442
sg75
(lp449
S'env'
p450
asbag68
(g89
g70
NtRp451
(dp452
g73
(dp453
g100
g101
ssg82
g442
sg75
(lp454
S':'
asbag68
(g89
g70
NtRp455
(dp456
g73
(dp457
sg82
g442
sg75
(lp458
g68
(g69
g70
NtRp459
(dp460
g73
(dp461
g81
I5
ssg82
g455
sg75
(lp462
g68
(g77
g70
NtRp463
(dp464
g73
(dp465
g81
I4
ssg82
Nsg75
(lp466
g68
(g84
g70
NtRp467
(dp468
g73
(dp469
sg82
g463
sg75
(lp470
g68
(g89
g70
NtRp471
(dp472
g73
(dp473
g93
g94
ssg82
g467
sg75
(lp474
S'app_folders'
p475
asbag68
(g89
g70
NtRp476
(dp477
g73
(dp478
g100
g101
ssg82
g467
sg75
(lp479
S':'
asbag68
(g89
g70
NtRp480
(dp481
g73
(dp482
sg82
g467
sg75
(lp483
g68
(g69
g70
NtRp484
(dp485
g73
(dp486
g81
I4
ssg82
g480
sg75
(lp487
S"set(['/home/kaique/Projects/WebApps/web2py/applications/makebrand/'])"
p488
asbasbasbag68
(g84
g70
NtRp489
(dp490
g73
(dp491
sg82
g463
sg75
(lp492
g68
(g89
g70
NtRp493
(dp494
g73
(dp495
g93
g94
ssg82
g489
sg75
(lp496
S'applications_parent'
p497
asbag68
(g89
g70
NtRp498
(dp499
g73
(dp500
g100
g101
ssg82
g489
sg75
(lp501
S':'
asbag68
(g89
g70
NtRp502
(dp503
g73
(dp504
sg82
g489
sg75
(lp505
g68
(g69
g70
NtRp506
(dp507
g73
(dp508
g81
I4
ssg82
g502
sg75
(lp509
S'/home/kaique/Projects/WebApps/web2py'
p510
asbasbasbag68
(g84
g70
NtRp511
(dp512
g73
(dp513
sg82
g463
sg75
(lp514
g68
(g89
g70
NtRp515
(dp516
g73
(dp517
g93
g94
ssg82
g511
sg75
(lp518
S'cmd_args'
p519
asbag68
(g89
g70
NtRp520
(dp521
g73
(dp522
g100
g101
ssg82
g511
sg75
(lp523
S':'
asbag68
(g89
g70
NtRp524
(dp525
g73
(dp526
sg82
g511
sg75
(lp527
g68
(g69
g70
NtRp528
(dp529
g73
(dp530
g81
I4
ssg82
g524
sg75
(lp531
g68
(g77
g70
NtRp532
(dp533
g73
(dp534
g81
I3
ssg82
Nsg75
(lp535
sbasbasbasbag68
(g84
g70
NtRp536
(dp537
g73
(dp538
sg82
g463
sg75
(lp539
g68
(g89
g70
NtRp540
(dp541
g73
(dp542
g93
g94
ssg82
g536
sg75
(lp543
S'cmd_options'
p544
asbag68
(g89
g70
NtRp545
(dp546
g73
(dp547
g100
g101
ssg82
g536
sg75
(lp548
S':'
asbag68
(g89
g70
NtRp549
(dp550
g73
(dp551
sg82
g536
sg75
(lp552
g68
(g69
g70
NtRp553
(dp554
g73
(dp555
g81
I4
ssg82
g549
sg75
(lp556
S"<Values at 0x9c4280c: {'verbose': False, 'ip': '127.0.0.1', 'shutdown_timeout': 5, 'taskbar': False, 'nocron': False, 'pid_filename': 'httpserver.pid', 'maxthreads': None, 'softcron': False, 'server_name': 'ubuntu', 'bpython': False, 'nogui': False, 'port': 8000, 'extcron': False, 'debuglevel': 30, 'test': None, 'folder': '/home/kaique/Projects/WebApps/web2py', 'config': '', 'import_models': False, 'winservice': '', 'shell': None, 'run': '', 'log_filename': 'httpserver.log', 'args': [''], 'socket_timeout': 1, 'ssl_ca_certificate': None, 'scheduler': None, 'profiler_filename': None, 'ssl_private_key': '', 'password': 'dev', 'request_queue_size': 5, 'ssl_certificate': '', 'cronjob': False, 'numthreads': None, 'quiet': False, 'interfaces': None, 'minthreads': None, 'timeout': 10, 'plain': False, 'nobanner': False}>"
p557
asbasbasbag68
(g84
g70
NtRp558
(dp559
g73
(dp560
sg82
g463
sg75
(lp561
g68
(g89
g70
NtRp562
(dp563
g73
(dp564
g93
g94
ssg82
g558
sg75
(lp565
S'db_sessions'
p566
asbag68
(g89
g70
NtRp567
(dp568
g73
(dp569
g100
g101
ssg82
g558
sg75
(lp570
S':'
asbag68
(g89
g70
NtRp571
(dp572
g73
(dp573
sg82
g558
sg75
(lp574
g68
(g69
g70
NtRp575
(dp576
g73
(dp577
g81
I4
ssg82
g571
sg75
(lp578
S'set([])'
p579
asbasbasbag68
(g84
g70
NtRp580
(dp581
g73
(dp582
sg82
g463
sg75
(lp583
g68
(g89
g70
NtRp584
(dp585
g73
(dp586
g93
g94
ssg82
g580
sg75
(lp587
S'debugging'
p588
asbag68
(g89
g70
NtRp589
(dp590
g73
(dp591
g100
g101
ssg82
g580
sg75
(lp592
S':'
asbag68
(g89
g70
NtRp593
(dp594
g73
(dp595
sg82
g580
sg75
(lp596
g68
(g69
g70
NtRp597
(dp598
g73
(dp599
g81
I4
ssg82
g593
sg75
(lp600
g111
asbasbasbag68
(g84
g70
NtRp601
(dp602
g73
(dp603
sg82
g463
sg75
(lp604
g68
(g89
g70
NtRp605
(dp606
g73
(dp607
g93
g94
ssg82
g601
sg75
(lp608
S'gluon_parent'
p609
asbag68
(g89
g70
NtRp610
(dp611
g73
(dp612
g100
g101
ssg82
g601
sg75
(lp613
S':'
asbag68
(g89
g70
NtRp614
(dp615
g73
(dp616
sg82
g601
sg75
(lp617
g68
(g69
g70
NtRp618
(dp619
g73
(dp620
g81
I4
ssg82
g614
sg75
(lp621
S'/home/kaique/Projects/WebApps/web2py'
p622
asbasbasbag68
(g84
g70
NtRp623
(dp624
g73
(dp625
sg82
g463
sg75
(lp626
g68
(g89
g70
NtRp627
(dp628
g73
(dp629
g93
g94
ssg82
g623
sg75
(lp630
S'http_accept'
p631
asbag68
(g89
g70
NtRp632
(dp633
g73
(dp634
g100
g101
ssg82
g623
sg75
(lp635
S':'
asbag68
(g89
g70
NtRp636
(dp637
g73
(dp638
sg82
g623
sg75
(lp639
g68
(g69
g70
NtRp640
(dp641
g73
(dp642
g81
I4
ssg82
g636
sg75
(lp643
S'text/html,application/xhtml+xml,application/xml;q=0.9,*/*;q=0.8'
p644
asbasbasbag68
(g84
g70
NtRp645
(dp646
g73
(dp647
sg82
g463
sg75
(lp648
g68
(g89
g70
NtRp649
(dp650
g73
(dp651
g93
g94
ssg82
g645
sg75
(lp652
S'http_accept_charset'
p653
asbag68
(g89
g70
NtRp654
(dp655
g73
(dp656
g100
g101
ssg82
g645
sg75
(lp657
S':'
asbag68
(g89
g70
NtRp658
(dp659
g73
(dp660
sg82
g645
sg75
(lp661
g68
(g69
g70
NtRp662
(dp663
g73
(dp664
g81
I4
ssg82
g658
sg75
(lp665
S'UTF-8,*;q=0.5'
p666
asbasbasbag68
(g84
g70
NtRp667
(dp668
g73
(dp669
sg82
g463
sg75
(lp670
g68
(g89
g70
NtRp671
(dp672
g73
(dp673
g93
g94
ssg82
g667
sg75
(lp674
S'http_accept_encoding'
p675
asbag68
(g89
g70
NtRp676
(dp677
g73
(dp678
g100
g101
ssg82
g667
sg75
(lp679
S':'
asbag68
(g89
g70
NtRp680
(dp681
g73
(dp682
sg82
g667
sg75
(lp683
g68
(g69
g70
NtRp684
(dp685
g73
(dp686
g81
I4
ssg82
g680
sg75
(lp687
S'gzip,deflate,sdch'
p688
asbasbasbag68
(g84
g70
NtRp689
(dp690
g73
(dp691
sg82
g463
sg75
(lp692
g68
(g89
g70
NtRp693
(dp694
g73
(dp695
g93
g94
ssg82
g689
sg75
(lp696
S'http_accept_language'
p697
asbag68
(g89
g70
NtRp698
(dp699
g73
(dp700
g100
g101
ssg82
g689
sg75
(lp701
S':'
asbag68
(g89
g70
NtRp702
(dp703
g73
(dp704
sg82
g689
sg75
(lp705
g68
(g69
g70
NtRp706
(dp707
g73
(dp708
g81
I4
ssg82
g702
sg75
(lp709
S'pt-BR,pt;q=0.8,en-US;q=0.6,en;q=0.4'
p710
asbasbasbag68
(g84
g70
NtRp711
(dp712
g73
(dp713
sg82
g463
sg75
(lp714
g68
(g89
g70
NtRp715
(dp716
g73
(dp717
g93
g94
ssg82
g711
sg75
(lp718
S'http_cache_control'
p719
asbag68
(g89
g70
NtRp720
(dp721
g73
(dp722
g100
g101
ssg82
g711
sg75
(lp723
S':'
asbag68
(g89
g70
NtRp724
(dp725
g73
(dp726
sg82
g711
sg75
(lp727
g68
(g69
g70
NtRp728
(dp729
g73
(dp730
g81
I4
ssg82
g724
sg75
(lp731
S'max-age=0'
p732
asbasbasbag68
(g84
g70
NtRp733
(dp734
g73
(dp735
sg82
g463
sg75
(lp736
g68
(g89
g70
NtRp737
(dp738
g73
(dp739
g93
g94
ssg82
g733
sg75
(lp740
S'http_connection'
p741
asbag68
(g89
g70
NtRp742
(dp743
g73
(dp744
g100
g101
ssg82
g733
sg75
(lp745
S':'
asbag68
(g89
g70
NtRp746
(dp747
g73
(dp748
sg82
g733
sg75
(lp749
g68
(g69
g70
NtRp750
(dp751
g73
(dp752
g81
I4
ssg82
g746
sg75
(lp753
S'keep-alive'
p754
asbasbasbag68
(g84
g70
NtRp755
(dp756
g73
(dp757
sg82
g463
sg75
(lp758
g68
(g89
g70
NtRp759
(dp760
g73
(dp761
g93
g94
ssg82
g755
sg75
(lp762
S'http_cookie'
p763
asbag68
(g89
g70
NtRp764
(dp765
g73
(dp766
g100
g101
ssg82
g755
sg75
(lp767
S':'
asbag68
(g89
g70
NtRp768
(dp769
g73
(dp770
sg82
g755
sg75
(lp771
g68
(g69
g70
NtRp772
(dp773
g73
(dp774
g81
I4
ssg82
g768
sg75
(lp775
S'session_id_makebrand=127.0.0.1-ae1b9b0f-74d2-4e21-a732-318441651a9c'
p776
asbasbasbag68
(g84
g70
NtRp777
(dp778
g73
(dp779
sg82
g463
sg75
(lp780
g68
(g89
g70
NtRp781
(dp782
g73
(dp783
g93
g94
ssg82
g777
sg75
(lp784
S'http_host'
p785
asbag68
(g89
g70
NtRp786
(dp787
g73
(dp788
g100
g101
ssg82
g777
sg75
(lp789
S':'
asbag68
(g89
g70
NtRp790
(dp791
g73
(dp792
sg82
g777
sg75
(lp793
g68
(g69
g70
NtRp794
(dp795
g73
(dp796
g81
I4
ssg82
g790
sg75
(lp797
S'127.0.0.1:8000'
p798
asbasbasbag68
(g84
g70
NtRp799
(dp800
g73
(dp801
sg82
g463
sg75
(lp802
g68
(g89
g70
NtRp803
(dp804
g73
(dp805
g93
g94
ssg82
g799
sg75
(lp806
S'http_referer'
p807
asbag68
(g89
g70
NtRp808
(dp809
g73
(dp810
g100
g101
ssg82
g799
sg75
(lp811
S':'
asbag68
(g89
g70
NtRp812
(dp813
g73
(dp814
sg82
g799
sg75
(lp815
g68
(g69
g70
NtRp816
(dp817
g73
(dp818
g81
I4
ssg82
g812
sg75
(lp819
S'http://127.0.0.1:8000/makebrand/default/user/login?_next=/makebrand/default/index'
p820
asbasbasbag68
(g84
g70
NtRp821
(dp822
g73
(dp823
sg82
g463
sg75
(lp824
g68
(g89
g70
NtRp825
(dp826
g73
(dp827
g93
g94
ssg82
g821
sg75
(lp828
S'http_user_agent'
p829
asbag68
(g89
g70
NtRp830
(dp831
g73
(dp832
g100
g101
ssg82
g821
sg75
(lp833
S':'
asbag68
(g89
g70
NtRp834
(dp835
g73
(dp836
sg82
g821
sg75
(lp837
g68
(g69
g70
NtRp838
(dp839
g73
(dp840
g81
I4
ssg82
g834
sg75
(lp841
S'Mozilla/5.0 (X11; Linux i686) AppleWebKit/535.7 (KHTML, like Gecko) Chrome/16.0.912.77 Safari/535.7'
p842
asbasbasbag68
(g84
g70
NtRp843
(dp844
g73
(dp845
sg82
g463
sg75
(lp846
g68
(g89
g70
NtRp847
(dp848
g73
(dp849
g93
g94
ssg82
g843
sg75
(lp850
S'is_jython'
p851
asbag68
(g89
g70
NtRp852
(dp853
g73
(dp854
g100
g101
ssg82
g843
sg75
(lp855
S':'
asbag68
(g89
g70
NtRp856
(dp857
g73
(dp858
sg82
g843
sg75
(lp859
g68
(g69
g70
NtRp860
(dp861
g73
(dp862
g81
I4
ssg82
g856
sg75
(lp863
g111
asbasbasbag68
(g84
g70
NtRp864
(dp865
g73
(dp866
sg82
g463
sg75
(lp867
g68
(g89
g70
NtRp868
(dp869
g73
(dp870
g93
g94
ssg82
g864
sg75
(lp871
S'is_pypy'
p872
asbag68
(g89
g70
NtRp873
(dp874
g73
(dp875
g100
g101
ssg82
g864
sg75
(lp876
S':'
asbag68
(g89
g70
NtRp877
(dp878
g73
(dp879
sg82
g864
sg75
(lp880
g68
(g69
g70
NtRp881
(dp882
g73
(dp883
g81
I4
ssg82
g877
sg75
(lp884
g111
asbasbasbag68
(g84
g70
NtRp885
(dp886
g73
(dp887
sg82
g463
sg75
(lp888
g68
(g89
g70
NtRp889
(dp890
g73
(dp891
g93
g94
ssg82
g885
sg75
(lp892
S'path_info'
p893
asbag68
(g89
g70
NtRp894
(dp895
g73
(dp896
g100
g101
ssg82
g885
sg75
(lp897
S':'
asbag68
(g89
g70
NtRp898
(dp899
g73
(dp900
sg82
g885
sg75
(lp901
g68
(g69
g70
NtRp902
(dp903
g73
(dp904
g81
I4
ssg82
g898
sg75
(lp905
S'/makebrand/default/index'
p906
asbasbasbag68
(g84
g70
NtRp907
(dp908
g73
(dp909
sg82
g463
sg75
(lp910
g68
(g89
g70
NtRp911
(dp912
g73
(dp913
g93
g94
ssg82
g907
sg75
(lp914
S'query_string'
p915
asbag68
(g89
g70
NtRp916
(dp917
g73
(dp918
g100
g101
ssg82
g907
sg75
(lp919
S':'
asbag68
(g89
g70
NtRp920
(dp921
g73
(dp922
sg82
g907
sg75
(lp923
g68
(g69
g70
NtRp924
(dp925
g73
(dp926
g81
I4
ssg82
g920
sg75
(lp927
S''
asbasbasbag68
(g84
g70
NtRp928
(dp929
g73
(dp930
sg82
g463
sg75
(lp931
g68
(g89
g70
NtRp932
(dp933
g73
(dp934
g93
g94
ssg82
g928
sg75
(lp935
S'remote_addr'
p936
asbag68
(g89
g70
NtRp937
(dp938
g73
(dp939
g100
g101
ssg82
g928
sg75
(lp940
S':'
asbag68
(g89
g70
NtRp941
(dp942
g73
(dp943
sg82
g928
sg75
(lp944
g68
(g69
g70
NtRp945
(dp946
g73
(dp947
g81
I4
ssg82
g941
sg75
(lp948
g201
asbasbasbag68
(g84
g70
NtRp949
(dp950
g73
(dp951
sg82
g463
sg75
(lp952
g68
(g89
g70
NtRp953
(dp954
g73
(dp955
g93
g94
ssg82
g949
sg75
(lp956
S'remote_port'
p957
asbag68
(g89
g70
NtRp958
(dp959
g73
(dp960
g100
g101
ssg82
g949
sg75
(lp961
S':'
asbag68
(g89
g70
NtRp962
(dp963
g73
(dp964
sg82
g949
sg75
(lp965
g68
(g69
g70
NtRp966
(dp967
g73
(dp968
g81
I4
ssg82
g962
sg75
(lp969
S'41588'
p970
asbasbasbag68
(g84
g70
NtRp971
(dp972
g73
(dp973
sg82
g463
sg75
(lp974
g68
(g89
g70
NtRp975
(dp976
g73
(dp977
g93
g94
ssg82
g971
sg75
(lp978
S'request_method'
p979
asbag68
(g89
g70
NtRp980
(dp981
g73
(dp982
g100
g101
ssg82
g971
sg75
(lp983
S':'
asbag68
(g89
g70
NtRp984
(dp985
g73
(dp986
sg82
g971
sg75
(lp987
g68
(g69
g70
NtRp988
(dp989
g73
(dp990
g81
I4
ssg82
g984
sg75
(lp991
S'GET'
p992
asbasbasbag68
(g84
g70
NtRp993
(dp994
g73
(dp995
sg82
g463
sg75
(lp996
g68
(g89
g70
NtRp997
(dp998
g73
(dp999
g93
g94
ssg82
g993
sg75
(lp1000
S'script_name'
p1001
asbag68
(g89
g70
NtRp1002
(dp1003
g73
(dp1004
g100
g101
ssg82
g993
sg75
(lp1005
S':'
asbag68
(g89
g70
NtRp1006
(dp1007
g73
(dp1008
sg82
g993
sg75
(lp1009
g68
(g69
g70
NtRp1010
(dp1011
g73
(dp1012
g81
I4
ssg82
g1006
sg75
(lp1013
S''
asbasbasbag68
(g84
g70
NtRp1014
(dp1015
g73
(dp1016
sg82
g463
sg75
(lp1017
g68
(g89
g70
NtRp1018
(dp1019
g73
(dp1020
g93
g94
ssg82
g1014
sg75
(lp1021
S'server_name'
p1022
asbag68
(g89
g70
NtRp1023
(dp1024
g73
(dp1025
g100
g101
ssg82
g1014
sg75
(lp1026
S':'
asbag68
(g89
g70
NtRp1027
(dp1028
g73
(dp1029
sg82
g1014
sg75
(lp1030
g68
(g69
g70
NtRp1031
(dp1032
g73
(dp1033
g81
I4
ssg82
g1027
sg75
(lp1034
S'ubuntu'
p1035
asbasbasbag68
(g84
g70
NtRp1036
(dp1037
g73
(dp1038
sg82
g463
sg75
(lp1039
g68
(g89
g70
NtRp1040
(dp1041
g73
(dp1042
g93
g94
ssg82
g1036
sg75
(lp1043
S'server_port'
p1044
asbag68
(g89
g70
NtRp1045
(dp1046
g73
(dp1047
g100
g101
ssg82
g1036
sg75
(lp1048
S':'
asbag68
(g89
g70
NtRp1049
(dp1050
g73
(dp1051
sg82
g1036
sg75
(lp1052
g68
(g69
g70
NtRp1053
(dp1054
g73
(dp1055
g81
I4
ssg82
g1049
sg75
(lp1056
S'8000'
p1057
asbasbasbag68
(g84
g70
NtRp1058
(dp1059
g73
(dp1060
sg82
g463
sg75
(lp1061
g68
(g89
g70
NtRp1062
(dp1063
g73
(dp1064
g93
g94
ssg82
g1058
sg75
(lp1065
S'server_protocol'
p1066
asbag68
(g89
g70
NtRp1067
(dp1068
g73
(dp1069
g100
g101
ssg82
g1058
sg75
(lp1070
S':'
asbag68
(g89
g70
NtRp1071
(dp1072
g73
(dp1073
sg82
g1058
sg75
(lp1074
g68
(g69
g70
NtRp1075
(dp1076
g73
(dp1077
g81
I4
ssg82
g1071
sg75
(lp1078
S'HTTP/1.1'
p1079
asbasbasbag68
(g84
g70
NtRp1080
(dp1081
g73
(dp1082
sg82
g463
sg75
(lp1083
g68
(g89
g70
NtRp1084
(dp1085
g73
(dp1086
g93
g94
ssg82
g1080
sg75
(lp1087
S'server_software'
p1088
asbag68
(g89
g70
NtRp1089
(dp1090
g73
(dp1091
g100
g101
ssg82
g1080
sg75
(lp1092
S':'
asbag68
(g89
g70
NtRp1093
(dp1094
g73
(dp1095
sg82
g1080
sg75
(lp1096
g68
(g69
g70
NtRp1097
(dp1098
g73
(dp1099
g81
I4
ssg82
g1093
sg75
(lp1100
S'Rocket 1.2.4'
p1101
asbasbasbag68
(g84
g70
NtRp1102
(dp1103
g73
(dp1104
sg82
g463
sg75
(lp1105
g68
(g89
g70
NtRp1106
(dp1107
g73
(dp1108
g93
g94
ssg82
g1102
sg75
(lp1109
S'web2py_crontype'
p1110
asbag68
(g89
g70
NtRp1111
(dp1112
g73
(dp1113
g100
g101
ssg82
g1102
sg75
(lp1114
S':'
asbag68
(g89
g70
NtRp1115
(dp1116
g73
(dp1117
sg82
g1102
sg75
(lp1118
g68
(g69
g70
NtRp1119
(dp1120
g73
(dp1121
g81
I4
ssg82
g1115
sg75
(lp1122
S'hard'
p1123
asbasbasbag68
(g84
g70
NtRp1124
(dp1125
g73
(dp1126
sg82
g463
sg75
(lp1127
g68
(g89
g70
NtRp1128
(dp1129
g73
(dp1130
g93
g94
ssg82
g1124
sg75
(lp1131
S'web2py_path'
p1132
asbag68
(g89
g70
NtRp1133
(dp1134
g73
(dp1135
g100
g101
ssg82
g1124
sg75
(lp1136
S':'
asbag68
(g89
g70
NtRp1137
(dp1138
g73
(dp1139
sg82
g1124
sg75
(lp1140
g68
(g69
g70
NtRp1141
(dp1142
g73
(dp1143
g81
I4
ssg82
g1137
sg75
(lp1144
g510
asbasbasbag68
(g84
g70
NtRp1145
(dp1146
g73
(dp1147
sg82
g463
sg75
(lp1148
g68
(g89
g70
NtRp1149
(dp1150
g73
(dp1151
g93
g94
ssg82
g1145
sg75
(lp1152
S'web2py_version'
p1153
asbag68
(g89
g70
NtRp1154
(dp1155
g73
(dp1156
g100
g101
ssg82
g1145
sg75
(lp1157
S':'
asbag68
(g89
g70
NtRp1158
(dp1159
g73
(dp1160
sg82
g1145
sg75
(lp1161
g68
(g69
g70
NtRp1162
(dp1163
g73
(dp1164
g81
I4
ssg82
g1158
sg75
(lp1165
g68
(g77
g70
NtRp1166
(dp1167
g73
(dp1168
g81
I3
ssg82
Nsg75
(lp1169
g68
(g84
g70
NtRp1170
(dp1171
g73
(dp1172
sg82
g1166
sg75
(lp1173
g68
(g89
g70
NtRp1174
(dp1175
g73
(dp1176
sg82
g1170
sg75
(lp1177
g68
(g69
g70
NtRp1178
(dp1179
g73
(dp1180
g81
I3
ssg82
g1174
sg75
(lp1181
S'1'
asbasbasbag68
(g84
g70
NtRp1182
(dp1183
g73
(dp1184
sg82
g1166
sg75
(lp1185
g68
(g89
g70
NtRp1186
(dp1187
g73
(dp1188
sg82
g1182
sg75
(lp1189
g68
(g69
g70
NtRp1190
(dp1191
g73
(dp1192
g81
I3
ssg82
g1186
sg75
(lp1193
S'99'
p1194
asbasbasbag68
(g84
g70
NtRp1195
(dp1196
g73
(dp1197
sg82
g1166
sg75
(lp1198
g68
(g89
g70
NtRp1199
(dp1200
g73
(dp1201
sg82
g1195
sg75
(lp1202
g68
(g69
g70
NtRp1203
(dp1204
g73
(dp1205
g81
I3
ssg82
g1199
sg75
(lp1206
S'4'
asbasbasbag68
(g84
g70
NtRp1207
(dp1208
g73
(dp1209
sg82
g1166
sg75
(lp1210
g68
(g89
g70
NtRp1211
(dp1212
g73
(dp1213
sg82
g1207
sg75
(lp1214
g68
(g69
g70
NtRp1215
(dp1216
g73
(dp1217
g81
I3
ssg82
g1211
sg75
(lp1218
S'datetime.datetime(2011, 12, 14, 14, 46, 14)'
p1219
asbasbasbag68
(g84
g70
NtRp1220
(dp1221
g73
(dp1222
sg82
g1166
sg75
(lp1223
g68
(g89
g70
NtRp1224
(dp1225
g73
(dp1226
sg82
g1220
sg75
(lp1227
g68
(g69
g70
NtRp1228
(dp1229
g73
(dp1230
g81
I3
ssg82
g1224
sg75
(lp1231
S'stable'
p1232
asbasbasbasbasbasbasbag68
(g84
g70
NtRp1233
(dp1234
g73
(dp1235
sg82
g463
sg75
(lp1236
g68
(g89
g70
NtRp1237
(dp1238
g73
(dp1239
g93
g94
ssg82
g1233
sg75
(lp1240
S'wsgi_errors'
p1241
asbag68
(g89
g70
NtRp1242
(dp1243
g73
(dp1244
g100
g101
ssg82
g1233
sg75
(lp1245
S':'
asbag68
(g89
g70
NtRp1246
(dp1247
g73
(dp1248
sg82
g1233
sg75
(lp1249
g68
(g69
g70
NtRp1250
(dp1251
g73
(dp1252
g81
I4
ssg82
g1246
sg75
(lp1253
S"<open file '<stderr>', mode 'w' at 0xb73ea0d0>"
p1254
asbasbasbag68
(g84
g70
NtRp1255
(dp1256
g73
(dp1257
sg82
g463
sg75
(lp1258
g68
(g89
g70
NtRp1259
(dp1260
g73
(dp1261
g93
g94
ssg82
g1255
sg75
(lp1262
S'wsgi_file_wrapper'
p1263
asbag68
(g89
g70
NtRp1264
(dp1265
g73
(dp1266
g100
g101
ssg82
g1255
sg75
(lp1267
S':'
asbag68
(g89
g70
NtRp1268
(dp1269
g73
(dp1270
sg82
g1255
sg75
(lp1271
g68
(g69
g70
NtRp1272
(dp1273
g73
(dp1274
g81
I4
ssg82
g1268
sg75
(lp1275
S'<class wsgiref.util.FileWrapper at 0x9bf220c>'
p1276
asbasbasbag68
(g84
g70
NtRp1277
(dp1278
g73
(dp1279
sg82
g463
sg75
(lp1280
g68
(g89
g70
NtRp1281
(dp1282
g73
(dp1283
g93
g94
ssg82
g1277
sg75
(lp1284
S'wsgi_input'
p1285
asbag68
(g89
g70
NtRp1286
(dp1287
g73
(dp1288
g100
g101
ssg82
g1277
sg75
(lp1289
S':'
asbag68
(g89
g70
NtRp1290
(dp1291
g73
(dp1292
sg82
g1277
sg75
(lp1293
g68
(g69
g70
NtRp1294
(dp1295
g73
(dp1296
g81
I4
ssg82
g1290
sg75
(lp1297
S'<socket._fileobject object at 0x9dc0d2c>'
p1298
asbasbasbag68
(g84
g70
NtRp1299
(dp1300
g73
(dp1301
sg82
g463
sg75
(lp1302
g68
(g89
g70
NtRp1303
(dp1304
g73
(dp1305
g93
g94
ssg82
g1299
sg75
(lp1306
S'wsgi_multiprocess'
p1307
asbag68
(g89
g70
NtRp1308
(dp1309
g73
(dp1310
g100
g101
ssg82
g1299
sg75
(lp1311
S':'
asbag68
(g89
g70
NtRp1312
(dp1313
g73
(dp1314
sg82
g1299
sg75
(lp1315
g68
(g69
g70
NtRp1316
(dp1317
g73
(dp1318
g81
I4
ssg82
g1312
sg75
(lp1319
g111
asbasbasbag68
(g84
g70
NtRp1320
(dp1321
g73
(dp1322
sg82
g463
sg75
(lp1323
g68
(g89
g70
NtRp1324
(dp1325
g73
(dp1326
g93
g94
ssg82
g1320
sg75
(lp1327
S'wsgi_multithread'
p1328
asbag68
(g89
g70
NtRp1329
(dp1330
g73
(dp1331
g100
g101
ssg82
g1320
sg75
(lp1332
S':'
asbag68
(g89
g70
NtRp1333
(dp1334
g73
(dp1335
sg82
g1320
sg75
(lp1336
g68
(g69
g70
NtRp1337
(dp1338
g73
(dp1339
g81
I4
ssg82
g1333
sg75
(lp1340
S'True'
p1341
asbasbasbag68
(g84
g70
NtRp1342
(dp1343
g73
(dp1344
sg82
g463
sg75
(lp1345
g68
(g89
g70
NtRp1346
(dp1347
g73
(dp1348
g93
g94
ssg82
g1342
sg75
(lp1349
S'wsgi_run_once'
p1350
asbag68
(g89
g70
NtRp1351
(dp1352
g73
(dp1353
g100
g101
ssg82
g1342
sg75
(lp1354
S':'
asbag68
(g89
g70
NtRp1355
(dp1356
g73
(dp1357
sg82
g1342
sg75
(lp1358
g68
(g69
g70
NtRp1359
(dp1360
g73
(dp1361
g81
I4
ssg82
g1355
sg75
(lp1362
g111
asbasbasbag68
(g84
g70
NtRp1363
(dp1364
g73
(dp1365
sg82
g463
sg75
(lp1366
g68
(g89
g70
NtRp1367
(dp1368
g73
(dp1369
g93
g94
ssg82
g1363
sg75
(lp1370
S'wsgi_url_scheme'
p1371
asbag68
(g89
g70
NtRp1372
(dp1373
g73
(dp1374
g100
g101
ssg82
g1363
sg75
(lp1375
S':'
asbag68
(g89
g70
NtRp1376
(dp1377
g73
(dp1378
sg82
g1363
sg75
(lp1379
g68
(g69
g70
NtRp1380
(dp1381
g73
(dp1382
g81
I4
ssg82
g1376
sg75
(lp1383
S'http'
p1384
asbasbasbag68
(g84
g70
NtRp1385
(dp1386
g73
(dp1387
sg82
g463
sg75
(lp1388
g68
(g89
g70
NtRp1389
(dp1390
g73
(dp1391
g93
g94
ssg82
g1385
sg75
(lp1392
S'wsgi_version'
p1393
asbag68
(g89
g70
NtRp1394
(dp1395
g73
(dp1396
g100
g101
ssg82
g1385
sg75
(lp1397
S':'
asbag68
(g89
g70
NtRp1398
(dp1399
g73
(dp1400
sg82
g1385
sg75
(lp1401
g68
(g69
g70
NtRp1402
(dp1403
g73
(dp1404
g81
I4
ssg82
g1398
sg75
(lp1405
g68
(g77
g70
NtRp1406
(dp1407
g73
(dp1408
g81
I3
ssg82
Nsg75
(lp1409
g68
(g84
g70
NtRp1410
(dp1411
g73
(dp1412
sg82
g1406
sg75
(lp1413
g68
(g89
g70
NtRp1414
(dp1415
g73
(dp1416
sg82
g1410
sg75
(lp1417
g68
(g69
g70
NtRp1418
(dp1419
g73
(dp1420
g81
I3
ssg82
g1414
sg75
(lp1421
S'1'
asbasbasbag68
(g84
g70
NtRp1422
(dp1423
g73
(dp1424
sg82
g1406
sg75
(lp1425
g68
(g89
g70
NtRp1426
(dp1427
g73
(dp1428
sg82
g1422
sg75
(lp1429
g68
(g69
g70
NtRp1430
(dp1431
g73
(dp1432
g81
I3
ssg82
g1426
sg75
(lp1433
S'0'
asbasbasbasbasbasbasbasbasbasbasbag68
(g84
g70
NtRp1434
(dp1435
g73
(dp1436
sg82
g78
sg75
(lp1437
g68
(g89
g70
NtRp1438
(dp1439
g73
(dp1440
g93
g94
ssg82
g1434
sg75
(lp1441
S'extension'
p1442
asbag68
(g89
g70
NtRp1443
(dp1444
g73
(dp1445
g100
g101
ssg82
g1434
sg75
(lp1446
S':'
asbag68
(g89
g70
NtRp1447
(dp1448
g73
(dp1449
sg82
g1434
sg75
(lp1450
g68
(g69
g70
NtRp1451
(dp1452
g73
(dp1453
g81
I5
ssg82
g1447
sg75
(lp1454
S'html'
p1455
asbasbasbag68
(g84
g70
NtRp1456
(dp1457
g73
(dp1458
sg82
g78
sg75
(lp1459
g68
(g89
g70
NtRp1460
(dp1461
g73
(dp1462
g93
g94
ssg82
g1456
sg75
(lp1463
S'folder'
p1464
asbag68
(g89
g70
NtRp1465
(dp1466
g73
(dp1467
g100
g101
ssg82
g1456
sg75
(lp1468
S':'
asbag68
(g89
g70
NtRp1469
(dp1470
g73
(dp1471
sg82
g1456
sg75
(lp1472
g68
(g69
g70
NtRp1473
(dp1474
g73
(dp1475
g81
I5
ssg82
g1469
sg75
(lp1476
S'/home/kaique/Projects/WebApps/web2py/applications/makebrand/'
p1477
asbasbasbag68
(g84
g70
NtRp1478
(dp1479
g73
(dp1480
sg82
g78
sg75
(lp1481
g68
(g89
g70
NtRp1482
(dp1483
g73
(dp1484
g93
g94
ssg82
g1478
sg75
(lp1485
S'function'
p1486
asbag68
(g89
g70
NtRp1487
(dp1488
g73
(dp1489
g100
g101
ssg82
g1478
sg75
(lp1490
S':'
asbag68
(g89
g70
NtRp1491
(dp1492
g73
(dp1493
sg82
g1478
sg75
(lp1494
g68
(g69
g70
NtRp1495
(dp1496
g73
(dp1497
g81
I5
ssg82
g1491
sg75
(lp1498
S'index'
p1499
asbasbasbag68
(g84
g70
NtRp1500
(dp1501
g73
(dp1502
sg82
g78
sg75
(lp1503
g68
(g89
g70
NtRp1504
(dp1505
g73
(dp1506
g93
g94
ssg82
g1500
sg75
(lp1507
S'get_vars'
p1508
asbag68
(g89
g70
NtRp1509
(dp1510
g73
(dp1511
g100
g101
ssg82
g1500
sg75
(lp1512
S':'
asbag68
(g89
g70
NtRp1513
(dp1514
g73
(dp1515
sg82
g1500
sg75
(lp1516
g68
(g69
g70
NtRp1517
(dp1518
g73
(dp1519
g81
I5
ssg82
g1513
sg75
(lp1520
g68
(g77
g70
NtRp1521
(dp1522
g73
(dp1523
g81
I4
ssg82
Nsg75
(lp1524
sbasbasbasbag68
(g84
g70
NtRp1525
(dp1526
g73
(dp1527
sg82
g78
sg75
(lp1528
g68
(g89
g70
NtRp1529
(dp1530
g73
(dp1531
g93
g94
ssg82
g1525
sg75
(lp1532
S'global_settings'
p1533
asbag68
(g89
g70
NtRp1534
(dp1535
g73
(dp1536
g100
g101
ssg82
g1525
sg75
(lp1537
S':'
asbag68
(g89
g70
NtRp1538
(dp1539
g73
(dp1540
sg82
g1525
sg75
(lp1541
g68
(g69
g70
NtRp1542
(dp1543
g73
(dp1544
g81
I5
ssg82
g1538
sg75
(lp1545
g68
(g77
g70
NtRp1546
(dp1547
g73
(dp1548
g81
I4
ssg82
Nsg75
(lp1549
g68
(g84
g70
NtRp1550
(dp1551
g73
(dp1552
sg82
g1546
sg75
(lp1553
g68
(g89
g70
NtRp1554
(dp1555
g73
(dp1556
g93
g94
ssg82
g1550
sg75
(lp1557
g475
asbag68
(g89
g70
NtRp1558
(dp1559
g73
(dp1560
g100
g101
ssg82
g1550
sg75
(lp1561
S':'
asbag68
(g89
g70
NtRp1562
(dp1563
g73
(dp1564
sg82
g1550
sg75
(lp1565
g68
(g69
g70
NtRp1566
(dp1567
g73
(dp1568
g81
I4
ssg82
g1562
sg75
(lp1569
S"set(['/home/kaique/Projects/WebApps/web2py/applications/makebrand/'])"
p1570
asbasbasbag68
(g84
g70
NtRp1571
(dp1572
g73
(dp1573
sg82
g1546
sg75
(lp1574
g68
(g89
g70
NtRp1575
(dp1576
g73
(dp1577
g93
g94
ssg82
g1571
sg75
(lp1578
g497
asbag68
(g89
g70
NtRp1579
(dp1580
g73
(dp1581
g100
g101
ssg82
g1571
sg75
(lp1582
S':'
asbag68
(g89
g70
NtRp1583
(dp1584
g73
(dp1585
sg82
g1571
sg75
(lp1586
g68
(g69
g70
NtRp1587
(dp1588
g73
(dp1589
g81
I4
ssg82
g1583
sg75
(lp1590
g510
asbasbasbag68
(g84
g70
NtRp1591
(dp1592
g73
(dp1593
sg82
g1546
sg75
(lp1594
g68
(g89
g70
NtRp1595
(dp1596
g73
(dp1597
g93
g94
ssg82
g1591
sg75
(lp1598
g519
asbag68
(g89
g70
NtRp1599
(dp1600
g73
(dp1601
g100
g101
ssg82
g1591
sg75
(lp1602
S':'
asbag68
(g89
g70
NtRp1603
(dp1604
g73
(dp1605
sg82
g1591
sg75
(lp1606
g68
(g69
g70
NtRp1607
(dp1608
g73
(dp1609
g81
I4
ssg82
g1603
sg75
(lp1610
g68
(g77
g70
NtRp1611
(dp1612
g73
(dp1613
g81
I3
ssg82
Nsg75
(lp1614
sbasbasbasbag68
(g84
g70
NtRp1615
(dp1616
g73
(dp1617
sg82
g1546
sg75
(lp1618
g68
(g89
g70
NtRp1619
(dp1620
g73
(dp1621
g93
g94
ssg82
g1615
sg75
(lp1622
g544
asbag68
(g89
g70
NtRp1623
(dp1624
g73
(dp1625
g100
g101
ssg82
g1615
sg75
(lp1626
S':'
asbag68
(g89
g70
NtRp1627
(dp1628
g73
(dp1629
sg82
g1615
sg75
(lp1630
g68
(g69
g70
NtRp1631
(dp1632
g73
(dp1633
g81
I4
ssg82
g1627
sg75
(lp1634
S"<Values at 0x9c4280c: {'verbose': False, 'ip': '127.0.0.1', 'shutdown_timeout': 5, 'taskbar': False, 'nocron': False, 'pid_filename': 'httpserver.pid', 'maxthreads': None, 'softcron': False, 'server_name': 'ubuntu', 'bpython': False, 'nogui': False, 'port': 8000, 'extcron': False, 'debuglevel': 30, 'test': None, 'folder': '/home/kaique/Projects/WebApps/web2py', 'config': '', 'import_models': False, 'winservice': '', 'shell': None, 'run': '', 'log_filename': 'httpserver.log', 'args': [''], 'socket_timeout': 1, 'ssl_ca_certificate': None, 'scheduler': None, 'profiler_filename': None, 'ssl_private_key': '', 'password': 'dev', 'request_queue_size': 5, 'ssl_certificate': '', 'cronjob': False, 'numthreads': None, 'quiet': False, 'interfaces': None, 'minthreads': None, 'timeout': 10, 'plain': False, 'nobanner': False}>"
p1635
asbasbasbag68
(g84
g70
NtRp1636
(dp1637
g73
(dp1638
sg82
g1546
sg75
(lp1639
g68
(g89
g70
NtRp1640
(dp1641
g73
(dp1642
g93
g94
ssg82
g1636
sg75
(lp1643
g566
asbag68
(g89
g70
NtRp1644
(dp1645
g73
(dp1646
g100
g101
ssg82
g1636
sg75
(lp1647
S':'
asbag68
(g89
g70
NtRp1648
(dp1649
g73
(dp1650
sg82
g1636
sg75
(lp1651
g68
(g69
g70
NtRp1652
(dp1653
g73
(dp1654
g81
I4
ssg82
g1648
sg75
(lp1655
S'set([])'
p1656
asbasbasbag68
(g84
g70
NtRp1657
(dp1658
g73
(dp1659
sg82
g1546
sg75
(lp1660
g68
(g89
g70
NtRp1661
(dp1662
g73
(dp1663
g93
g94
ssg82
g1657
sg75
(lp1664
g588
asbag68
(g89
g70
NtRp1665
(dp1666
g73
(dp1667
g100
g101
ssg82
g1657
sg75
(lp1668
S':'
asbag68
(g89
g70
NtRp1669
(dp1670
g73
(dp1671
sg82
g1657
sg75
(lp1672
g68
(g69
g70
NtRp1673
(dp1674
g73
(dp1675
g81
I4
ssg82
g1669
sg75
(lp1676
g111
asbasbasbag68
(g84
g70
NtRp1677
(dp1678
g73
(dp1679
sg82
g1546
sg75
(lp1680
g68
(g89
g70
NtRp1681
(dp1682
g73
(dp1683
g93
g94
ssg82
g1677
sg75
(lp1684
g609
asbag68
(g89
g70
NtRp1685
(dp1686
g73
(dp1687
g100
g101
ssg82
g1677
sg75
(lp1688
S':'
asbag68
(g89
g70
NtRp1689
(dp1690
g73
(dp1691
sg82
g1677
sg75
(lp1692
g68
(g69
g70
NtRp1693
(dp1694
g73
(dp1695
g81
I4
ssg82
g1689
sg75
(lp1696
g622
asbasbasbag68
(g84
g70
NtRp1697
(dp1698
g73
(dp1699
sg82
g1546
sg75
(lp1700
g68
(g89
g70
NtRp1701
(dp1702
g73
(dp1703
g93
g94
ssg82
g1697
sg75
(lp1704
g851
asbag68
(g89
g70
NtRp1705
(dp1706
g73
(dp1707
g100
g101
ssg82
g1697
sg75
(lp1708
S':'
asbag68
(g89
g70
NtRp1709
(dp1710
g73
(dp1711
sg82
g1697
sg75
(lp1712
g68
(g69
g70
NtRp1713
(dp1714
g73
(dp1715
g81
I4
ssg82
g1709
sg75
(lp1716
g111
asbasbasbag68
(g84
g70
NtRp1717
(dp1718
g73
(dp1719
sg82
g1546
sg75
(lp1720
g68
(g89
g70
NtRp1721
(dp1722
g73
(dp1723
g93
g94
ssg82
g1717
sg75
(lp1724
g872
asbag68
(g89
g70
NtRp1725
(dp1726
g73
(dp1727
g100
g101
ssg82
g1717
sg75
(lp1728
S':'
asbag68
(g89
g70
NtRp1729
(dp1730
g73
(dp1731
sg82
g1717
sg75
(lp1732
g68
(g69
g70
NtRp1733
(dp1734
g73
(dp1735
g81
I4
ssg82
g1729
sg75
(lp1736
g111
asbasbasbag68
(g84
g70
NtRp1737
(dp1738
g73
(dp1739
sg82
g1546
sg75
(lp1740
g68
(g89
g70
NtRp1741
(dp1742
g73
(dp1743
g93
g94
ssg82
g1737
sg75
(lp1744
g1110
asbag68
(g89
g70
NtRp1745
(dp1746
g73
(dp1747
g100
g101
ssg82
g1737
sg75
(lp1748
S':'
asbag68
(g89
g70
NtRp1749
(dp1750
g73
(dp1751
sg82
g1737
sg75
(lp1752
g68
(g69
g70
NtRp1753
(dp1754
g73
(dp1755
g81
I4
ssg82
g1749
sg75
(lp1756
g1123
asbasbasbag68
(g84
g70
NtRp1757
(dp1758
g73
(dp1759
sg82
g1546
sg75
(lp1760
g68
(g89
g70
NtRp1761
(dp1762
g73
(dp1763
g93
g94
ssg82
g1757
sg75
(lp1764
g1153
asbag68
(g89
g70
NtRp1765
(dp1766
g73
(dp1767
g100
g101
ssg82
g1757
sg75
(lp1768
S':'
asbag68
(g89
g70
NtRp1769
(dp1770
g73
(dp1771
sg82
g1757
sg75
(lp1772
g68
(g69
g70
NtRp1773
(dp1774
g73
(dp1775
g81
I4
ssg82
g1769
sg75
(lp1776
g68
(g77
g70
NtRp1777
(dp1778
g73
(dp1779
g81
I3
ssg82
Nsg75
(lp1780
g68
(g84
g70
NtRp1781
(dp1782
g73
(dp1783
sg82
g1777
sg75
(lp1784
g68
(g89
g70
NtRp1785
(dp1786
g73
(dp1787
sg82
g1781
sg75
(lp1788
g68
(g69
g70
NtRp1789
(dp1790
g73
(dp1791
g81
I3
ssg82
g1785
sg75
(lp1792
S'1'
asbasbasbag68
(g84
g70
NtRp1793
(dp1794
g73
(dp1795
sg82
g1777
sg75
(lp1796
g68
(g89
g70
NtRp1797
(dp1798
g73
(dp1799
sg82
g1793
sg75
(lp1800
g68
(g69
g70
NtRp1801
(dp1802
g73
(dp1803
g81
I3
ssg82
g1797
sg75
(lp1804
S'99'
p1805
asbasbasbag68
(g84
g70
NtRp1806
(dp1807
g73
(dp1808
sg82
g1777
sg75
(lp1809
g68
(g89
g70
NtRp1810
(dp1811
g73
(dp1812
sg82
g1806
sg75
(lp1813
g68
(g69
g70
NtRp1814
(dp1815
g73
(dp1816
g81
I3
ssg82
g1810
sg75
(lp1817
S'4'
asbasbasbag68
(g84
g70
NtRp1818
(dp1819
g73
(dp1820
sg82
g1777
sg75
(lp1821
g68
(g89
g70
NtRp1822
(dp1823
g73
(dp1824
sg82
g1818
sg75
(lp1825
g68
(g69
g70
NtRp1826
(dp1827
g73
(dp1828
g81
I3
ssg82
g1822
sg75
(lp1829
S'datetime.datetime(2011, 12, 14, 14, 46, 14)'
p1830
asbasbasbag68
(g84
g70
NtRp1831
(dp1832
g73
(dp1833
sg82
g1777
sg75
(lp1834
g68
(g89
g70
NtRp1835
(dp1836
g73
(dp1837
sg82
g1831
sg75
(lp1838
g68
(g69
g70
NtRp1839
(dp1840
g73
(dp1841
g81
I3
ssg82
g1835
sg75
(lp1842
g1232
asbasbasbasbasbasbasbasbasbasbasbag68
(g84
g70
NtRp1843
(dp1844
g73
(dp1845
sg82
g78
sg75
(lp1846
g68
(g89
g70
NtRp1847
(dp1848
g73
(dp1849
g93
g94
ssg82
g1843
sg75
(lp1850
S'is_https'
p1851
asbag68
(g89
g70
NtRp1852
(dp1853
g73
(dp1854
g100
g101
ssg82
g1843
sg75
(lp1855
S':'
asbag68
(g89
g70
NtRp1856
(dp1857
g73
(dp1858
sg82
g1843
sg75
(lp1859
g68
(g69
g70
NtRp1860
(dp1861
g73
(dp1862
g81
I5
ssg82
g1856
sg75
(lp1863
g111
asbasbasbag68
(g84
g70
NtRp1864
(dp1865
g73
(dp1866
sg82
g78
sg75
(lp1867
g68
(g89
g70
NtRp1868
(dp1869
g73
(dp1870
g93
g94
ssg82
g1864
sg75
(lp1871
S'is_local'
p1872
asbag68
(g89
g70
NtRp1873
(dp1874
g73
(dp1875
g100
g101
ssg82
g1864
sg75
(lp1876
S':'
asbag68
(g89
g70
NtRp1877
(dp1878
g73
(dp1879
sg82
g1864
sg75
(lp1880
g68
(g69
g70
NtRp1881
(dp1882
g73
(dp1883
g81
I5
ssg82
g1877
sg75
(lp1884
g1341
asbasbasbag68
(g84
g70
NtRp1885
(dp1886
g73
(dp1887
sg82
g78
sg75
(lp1888
g68
(g89
g70
NtRp1889
(dp1890
g73
(dp1891
g93
g94
ssg82
g1885
sg75
(lp1892
S'is_restful'
p1893
asbag68
(g89
g70
NtRp1894
(dp1895
g73
(dp1896
g100
g101
ssg82
g1885
sg75
(lp1897
S':'
asbag68
(g89
g70
NtRp1898
(dp1899
g73
(dp1900
sg82
g1885
sg75
(lp1901
g68
(g69
g70
NtRp1902
(dp1903
g73
(dp1904
g81
I5
ssg82
g1898
sg75
(lp1905
g111
asbasbasbag68
(g84
g70
NtRp1906
(dp1907
g73
(dp1908
sg82
g78
sg75
(lp1909
g68
(g89
g70
NtRp1910
(dp1911
g73
(dp1912
g93
g94
ssg82
g1906
sg75
(lp1913
S'now'
p1914
asbag68
(g89
g70
NtRp1915
(dp1916
g73
(dp1917
g100
g101
ssg82
g1906
sg75
(lp1918
S':'
asbag68
(g89
g70
NtRp1919
(dp1920
g73
(dp1921
sg82
g1906
sg75
(lp1922
g68
(g69
g70
NtRp1923
(dp1924
g73
(dp1925
g81
I5
ssg82
g1919
sg75
(lp1926
S'datetime.datetime(2012, 1, 30, 17, 1, 47, 703285)'
p1927
asbasbasbag68
(g84
g70
NtRp1928
(dp1929
g73
(dp1930
sg82
g78
sg75
(lp1931
g68
(g89
g70
NtRp1932
(dp1933
g73
(dp1934
g93
g94
ssg82
g1928
sg75
(lp1935
S'post_vars'
p1936
asbag68
(g89
g70
NtRp1937
(dp1938
g73
(dp1939
g100
g101
ssg82
g1928
sg75
(lp1940
S':'
asbag68
(g89
g70
NtRp1941
(dp1942
g73
(dp1943
sg82
g1928
sg75
(lp1944
g68
(g69
g70
NtRp1945
(dp1946
g73
(dp1947
g81
I5
ssg82
g1941
sg75
(lp1948
g68
(g77
g70
NtRp1949
(dp1950
g73
(dp1951
g81
I4
ssg82
Nsg75
(lp1952
sbasbasbasbag68
(g84
g70
NtRp1953
(dp1954
g73
(dp1955
sg82
g78
sg75
(lp1956
g68
(g89
g70
NtRp1957
(dp1958
g73
(dp1959
g93
g94
ssg82
g1953
sg75
(lp1960
S'url'
p1961
asbag68
(g89
g70
NtRp1962
(dp1963
g73
(dp1964
g100
g101
ssg82
g1953
sg75
(lp1965
S':'
asbag68
(g89
g70
NtRp1966
(dp1967
g73
(dp1968
sg82
g1953
sg75
(lp1969
g68
(g69
g70
NtRp1970
(dp1971
g73
(dp1972
g81
I5
ssg82
g1966
sg75
(lp1973
S'/makebrand/default/index'
p1974
asbasbasbag68
(g84
g70
NtRp1975
(dp1976
g73
(dp1977
sg82
g78
sg75
(lp1978
g68
(g89
g70
NtRp1979
(dp1980
g73
(dp1981
g93
g94
ssg82
g1975
sg75
(lp1982
S'utcnow'
p1983
asbag68
(g89
g70
NtRp1984
(dp1985
g73
(dp1986
g100
g101
ssg82
g1975
sg75
(lp1987
S':'
asbag68
(g89
g70
NtRp1988
(dp1989
g73
(dp1990
sg82
g1975
sg75
(lp1991
g68
(g69
g70
NtRp1992
(dp1993
g73
(dp1994
g81
I5
ssg82
g1988
sg75
(lp1995
S'datetime.datetime(2012, 1, 30, 19, 1, 47, 703303)'
p1996
asbasbasbag68
(g84
g70
NtRp1997
(dp1998
g73
(dp1999
sg82
g78
sg75
(lp2000
g68
(g89
g70
NtRp2001
(dp2002
g73
(dp2003
g93
g94
ssg82
g1997
sg75
(lp2004
S'uuid'
p2005
asbag68
(g89
g70
NtRp2006
(dp2007
g73
(dp2008
g100
g101
ssg82
g1997
sg75
(lp2009
S':'
asbag68
(g89
g70
NtRp2010
(dp2011
g73
(dp2012
sg82
g1997
sg75
(lp2013
g68
(g69
g70
NtRp2014
(dp2015
g73
(dp2016
g81
I5
ssg82
g2010
sg75
(lp2017
S'makebrand/127.0.0.1.2012-01-30.17-01-47.fc4e2f83-149c-4991-a8ac-6ff81a722ec6'
p2018
asbasbasbag68
(g84
g70
NtRp2019
(dp2020
g73
(dp2021
sg82
g78
sg75
(lp2022
g68
(g89
g70
NtRp2023
(dp2024
g73
(dp2025
g93
g94
ssg82
g2019
sg75
(lp2026
S'vars'
p2027
asbag68
(g89
g70
NtRp2028
(dp2029
g73
(dp2030
g100
g101
ssg82
g2019
sg75
(lp2031
S':'
asbag68
(g89
g70
NtRp2032
(dp2033
g73
(dp2034
sg82
g2019
sg75
(lp2035
g68
(g69
g70
NtRp2036
(dp2037
g73
(dp2038
g81
I5
ssg82
g2032
sg75
(lp2039
g68
(g77
g70
NtRp2040
(dp2041
g73
(dp2042
g81
I4
ssg82
Nsg75
(lp2043
sbasbasbasbag68
(g84
g70
NtRp2044
(dp2045
g73
(dp2046
sg82
g78
sg75
(lp2047
g68
(g89
g70
NtRp2048
(dp2049
g73
(dp2050
g93
g94
ssg82
g2044
sg75
(lp2051
S'wsgi'
p2052
asbag68
(g89
g70
NtRp2053
(dp2054
g73
(dp2055
g100
g101
ssg82
g2044
sg75
(lp2056
S':'
asbag68
(g89
g70
NtRp2057
(dp2058
g73
(dp2059
sg82
g2044
sg75
(lp2060
g68
(g69
g70
NtRp2061
(dp2062
g73
(dp2063
g81
I5
ssg82
g2057
sg75
(lp2064
g68
(g77
g70
NtRp2065
(dp2066
g73
(dp2067
g81
I4
ssg82
Nsg75
(lp2068
g68
(g84
g70
NtRp2069
(dp2070
g73
(dp2071
sg82
g2065
sg75
(lp2072
g68
(g89
g70
NtRp2073
(dp2074
g73
(dp2075
g93
g94
ssg82
g2069
sg75
(lp2076
S'environ'
p2077
asbag68
(g89
g70
NtRp2078
(dp2079
g73
(dp2080
g100
g101
ssg82
g2069
sg75
(lp2081
S':'
asbag68
(g89
g70
NtRp2082
(dp2083
g73
(dp2084
sg82
g2069
sg75
(lp2085
g68
(g69
g70
NtRp2086
(dp2087
g73
(dp2088
g81
I4
ssg82
g2082
sg75
(lp2089
g68
(g77
g70
NtRp2090
(dp2091
g73
(dp2092
g81
I3
ssg82
Nsg75
(lp2093
g68
(g84
g70
NtRp2094
(dp2095
g73
(dp2096
sg82
g2090
sg75
(lp2097
g68
(g89
g70
NtRp2098
(dp2099
g73
(dp2100
g93
g94
ssg82
g2094
sg75
(lp2101
S'HTTP_ACCEPT'
p2102
asbag68
(g89
g70
NtRp2103
(dp2104
g73
(dp2105
g100
g101
ssg82
g2094
sg75
(lp2106
S':'
asbag68
(g89
g70
NtRp2107
(dp2108
g73
(dp2109
sg82
g2094
sg75
(lp2110
g68
(g69
g70
NtRp2111
(dp2112
g73
(dp2113
g81
I3
ssg82
g2107
sg75
(lp2114
g644
asbasbasbag68
(g84
g70
NtRp2115
(dp2116
g73
(dp2117
sg82
g2090
sg75
(lp2118
g68
(g89
g70
NtRp2119
(dp2120
g73
(dp2121
g93
g94
ssg82
g2115
sg75
(lp2122
S'HTTP_ACCEPT_CHARSET'
p2123
asbag68
(g89
g70
NtRp2124
(dp2125
g73
(dp2126
g100
g101
ssg82
g2115
sg75
(lp2127
S':'
asbag68
(g89
g70
NtRp2128
(dp2129
g73
(dp2130
sg82
g2115
sg75
(lp2131
g68
(g69
g70
NtRp2132
(dp2133
g73
(dp2134
g81
I3
ssg82
g2128
sg75
(lp2135
g666
asbasbasbag68
(g84
g70
NtRp2136
(dp2137
g73
(dp2138
sg82
g2090
sg75
(lp2139
g68
(g89
g70
NtRp2140
(dp2141
g73
(dp2142
g93
g94
ssg82
g2136
sg75
(lp2143
S'HTTP_ACCEPT_ENCODING'
p2144
asbag68
(g89
g70
NtRp2145
(dp2146
g73
(dp2147
g100
g101
ssg82
g2136
sg75
(lp2148
S':'
asbag68
(g89
g70
NtRp2149
(dp2150
g73
(dp2151
sg82
g2136
sg75
(lp2152
g68
(g69
g70
NtRp2153
(dp2154
g73
(dp2155
g81
I3
ssg82
g2149
sg75
(lp2156
g688
asbasbasbag68
(g84
g70
NtRp2157
(dp2158
g73
(dp2159
sg82
g2090
sg75
(lp2160
g68
(g89
g70
NtRp2161
(dp2162
g73
(dp2163
g93
g94
ssg82
g2157
sg75
(lp2164
S'HTTP_ACCEPT_LANGUAGE'
p2165
asbag68
(g89
g70
NtRp2166
(dp2167
g73
(dp2168
g100
g101
ssg82
g2157
sg75
(lp2169
S':'
asbag68
(g89
g70
NtRp2170
(dp2171
g73
(dp2172
sg82
g2157
sg75
(lp2173
g68
(g69
g70
NtRp2174
(dp2175
g73
(dp2176
g81
I3
ssg82
g2170
sg75
(lp2177
g710
asbasbasbag68
(g84
g70
NtRp2178
(dp2179
g73
(dp2180
sg82
g2090
sg75
(lp2181
g68
(g89
g70
NtRp2182
(dp2183
g73
(dp2184
g93
g94
ssg82
g2178
sg75
(lp2185
S'HTTP_CACHE_CONTROL'
p2186
asbag68
(g89
g70
NtRp2187
(dp2188
g73
(dp2189
g100
g101
ssg82
g2178
sg75
(lp2190
S':'
asbag68
(g89
g70
NtRp2191
(dp2192
g73
(dp2193
sg82
g2178
sg75
(lp2194
g68
(g69
g70
NtRp2195
(dp2196
g73
(dp2197
g81
I3
ssg82
g2191
sg75
(lp2198
g732
asbasbasbag68
(g84
g70
NtRp2199
(dp2200
g73
(dp2201
sg82
g2090
sg75
(lp2202
g68
(g89
g70
NtRp2203
(dp2204
g73
(dp2205
g93
g94
ssg82
g2199
sg75
(lp2206
S'HTTP_CONNECTION'
p2207
asbag68
(g89
g70
NtRp2208
(dp2209
g73
(dp2210
g100
g101
ssg82
g2199
sg75
(lp2211
S':'
asbag68
(g89
g70
NtRp2212
(dp2213
g73
(dp2214
sg82
g2199
sg75
(lp2215
g68
(g69
g70
NtRp2216
(dp2217
g73
(dp2218
g81
I3
ssg82
g2212
sg75
(lp2219
g754
asbasbasbag68
(g84
g70
NtRp2220
(dp2221
g73
(dp2222
sg82
g2090
sg75
(lp2223
g68
(g89
g70
NtRp2224
(dp2225
g73
(dp2226
g93
g94
ssg82
g2220
sg75
(lp2227
S'HTTP_COOKIE'
p2228
asbag68
(g89
g70
NtRp2229
(dp2230
g73
(dp2231
g100
g101
ssg82
g2220
sg75
(lp2232
S':'
asbag68
(g89
g70
NtRp2233
(dp2234
g73
(dp2235
sg82
g2220
sg75
(lp2236
g68
(g69
g70
NtRp2237
(dp2238
g73
(dp2239
g81
I3
ssg82
g2233
sg75
(lp2240
g776
asbasbasbag68
(g84
g70
NtRp2241
(dp2242
g73
(dp2243
sg82
g2090
sg75
(lp2244
g68
(g89
g70
NtRp2245
(dp2246
g73
(dp2247
g93
g94
ssg82
g2241
sg75
(lp2248
S'HTTP_HOST'
p2249
asbag68
(g89
g70
NtRp2250
(dp2251
g73
(dp2252
g100
g101
ssg82
g2241
sg75
(lp2253
S':'
asbag68
(g89
g70
NtRp2254
(dp2255
g73
(dp2256
sg82
g2241
sg75
(lp2257
g68
(g69
g70
NtRp2258
(dp2259
g73
(dp2260
g81
I3
ssg82
g2254
sg75
(lp2261
g798
asbasbasbag68
(g84
g70
NtRp2262
(dp2263
g73
(dp2264
sg82
g2090
sg75
(lp2265
g68
(g89
g70
NtRp2266
(dp2267
g73
(dp2268
g93
g94
ssg82
g2262
sg75
(lp2269
S'HTTP_REFERER'
p2270
asbag68
(g89
g70
NtRp2271
(dp2272
g73
(dp2273
g100
g101
ssg82
g2262
sg75
(lp2274
S':'
asbag68
(g89
g70
NtRp2275
(dp2276
g73
(dp2277
sg82
g2262
sg75
(lp2278
g68
(g69
g70
NtRp2279
(dp2280
g73
(dp2281
g81
I3
ssg82
g2275
sg75
(lp2282
g820
asbasbasbag68
(g84
g70
NtRp2283
(dp2284
g73
(dp2285
sg82
g2090
sg75
(lp2286
g68
(g89
g70
NtRp2287
(dp2288
g73
(dp2289
g93
g94
ssg82
g2283
sg75
(lp2290
S'HTTP_USER_AGENT'
p2291
asbag68
(g89
g70
NtRp2292
(dp2293
g73
(dp2294
g100
g101
ssg82
g2283
sg75
(lp2295
S':'
asbag68
(g89
g70
NtRp2296
(dp2297
g73
(dp2298
sg82
g2283
sg75
(lp2299
g68
(g69
g70
NtRp2300
(dp2301
g73
(dp2302
g81
I3
ssg82
g2296
sg75
(lp2303
g842
asbasbasbag68
(g84
g70
NtRp2304
(dp2305
g73
(dp2306
sg82
g2090
sg75
(lp2307
g68
(g89
g70
NtRp2308
(dp2309
g73
(dp2310
g93
g94
ssg82
g2304
sg75
(lp2311
S'PATH_INFO'
p2312
asbag68
(g89
g70
NtRp2313
(dp2314
g73
(dp2315
g100
g101
ssg82
g2304
sg75
(lp2316
S':'
asbag68
(g89
g70
NtRp2317
(dp2318
g73
(dp2319
sg82
g2304
sg75
(lp2320
g68
(g69
g70
NtRp2321
(dp2322
g73
(dp2323
g81
I3
ssg82
g2317
sg75
(lp2324
g906
asbasbasbag68
(g84
g70
NtRp2325
(dp2326
g73
(dp2327
sg82
g2090
sg75
(lp2328
g68
(g89
g70
NtRp2329
(dp2330
g73
(dp2331
g93
g94
ssg82
g2325
sg75
(lp2332
S'QUERY_STRING'
p2333
asbag68
(g89
g70
NtRp2334
(dp2335
g73
(dp2336
g100
g101
ssg82
g2325
sg75
(lp2337
S':'
asbag68
(g89
g70
NtRp2338
(dp2339
g73
(dp2340
sg82
g2325
sg75
(lp2341
g68
(g69
g70
NtRp2342
(dp2343
g73
(dp2344
g81
I3
ssg82
g2338
sg75
(lp2345
S''
asbasbasbag68
(g84
g70
NtRp2346
(dp2347
g73
(dp2348
sg82
g2090
sg75
(lp2349
g68
(g89
g70
NtRp2350
(dp2351
g73
(dp2352
g93
g94
ssg82
g2346
sg75
(lp2353
S'REMOTE_ADDR'
p2354
asbag68
(g89
g70
NtRp2355
(dp2356
g73
(dp2357
g100
g101
ssg82
g2346
sg75
(lp2358
S':'
asbag68
(g89
g70
NtRp2359
(dp2360
g73
(dp2361
sg82
g2346
sg75
(lp2362
g68
(g69
g70
NtRp2363
(dp2364
g73
(dp2365
g81
I3
ssg82
g2359
sg75
(lp2366
g201
asbasbasbag68
(g84
g70
NtRp2367
(dp2368
g73
(dp2369
sg82
g2090
sg75
(lp2370
g68
(g89
g70
NtRp2371
(dp2372
g73
(dp2373
g93
g94
ssg82
g2367
sg75
(lp2374
S'REMOTE_PORT'
p2375
asbag68
(g89
g70
NtRp2376
(dp2377
g73
(dp2378
g100
g101
ssg82
g2367
sg75
(lp2379
S':'
asbag68
(g89
g70
NtRp2380
(dp2381
g73
(dp2382
sg82
g2367
sg75
(lp2383
g68
(g69
g70
NtRp2384
(dp2385
g73
(dp2386
g81
I3
ssg82
g2380
sg75
(lp2387
g970
asbasbasbag68
(g84
g70
NtRp2388
(dp2389
g73
(dp2390
sg82
g2090
sg75
(lp2391
g68
(g89
g70
NtRp2392
(dp2393
g73
(dp2394
g93
g94
ssg82
g2388
sg75
(lp2395
S'REQUEST_METHOD'
p2396
asbag68
(g89
g70
NtRp2397
(dp2398
g73
(dp2399
g100
g101
ssg82
g2388
sg75
(lp2400
S':'
asbag68
(g89
g70
NtRp2401
(dp2402
g73
(dp2403
sg82
g2388
sg75
(lp2404
g68
(g69
g70
NtRp2405
(dp2406
g73
(dp2407
g81
I3
ssg82
g2401
sg75
(lp2408
g992
asbasbasbag68
(g84
g70
NtRp2409
(dp2410
g73
(dp2411
sg82
g2090
sg75
(lp2412
g68
(g89
g70
NtRp2413
(dp2414
g73
(dp2415
g93
g94
ssg82
g2409
sg75
(lp2416
S'SCRIPT_NAME'
p2417
asbag68
(g89
g70
NtRp2418
(dp2419
g73
(dp2420
g100
g101
ssg82
g2409
sg75
(lp2421
S':'
asbag68
(g89
g70
NtRp2422
(dp2423
g73
(dp2424
sg82
g2409
sg75
(lp2425
g68
(g69
g70
NtRp2426
(dp2427
g73
(dp2428
g81
I3
ssg82
g2422
sg75
(lp2429
S''
asbasbasbag68
(g84
g70
NtRp2430
(dp2431
g73
(dp2432
sg82
g2090
sg75
(lp2433
g68
(g89
g70
NtRp2434
(dp2435
g73
(dp2436
g93
g94
ssg82
g2430
sg75
(lp2437
S'SERVER_NAME'
p2438
asbag68
(g89
g70
NtRp2439
(dp2440
g73
(dp2441
g100
g101
ssg82
g2430
sg75
(lp2442
S':'
asbag68
(g89
g70
NtRp2443
(dp2444
g73
(dp2445
sg82
g2430
sg75
(lp2446
g68
(g69
g70
NtRp2447
(dp2448
g73
(dp2449
g81
I3
ssg82
g2443
sg75
(lp2450
g1035
asbasbasbag68
(g84
g70
NtRp2451
(dp2452
g73
(dp2453
sg82
g2090
sg75
(lp2454
g68
(g89
g70
NtRp2455
(dp2456
g73
(dp2457
g93
g94
ssg82
g2451
sg75
(lp2458
S'SERVER_PORT'
p2459
asbag68
(g89
g70
NtRp2460
(dp2461
g73
(dp2462
g100
g101
ssg82
g2451
sg75
(lp2463
S':'
asbag68
(g89
g70
NtRp2464
(dp2465
g73
(dp2466
sg82
g2451
sg75
(lp2467
g68
(g69
g70
NtRp2468
(dp2469
g73
(dp2470
g81
I3
ssg82
g2464
sg75
(lp2471
g1057
asbasbasbag68
(g84
g70
NtRp2472
(dp2473
g73
(dp2474
sg82
g2090
sg75
(lp2475
g68
(g89
g70
NtRp2476
(dp2477
g73
(dp2478
g93
g94
ssg82
g2472
sg75
(lp2479
S'SERVER_PROTOCOL'
p2480
asbag68
(g89
g70
NtRp2481
(dp2482
g73
(dp2483
g100
g101
ssg82
g2472
sg75
(lp2484
S':'
asbag68
(g89
g70
NtRp2485
(dp2486
g73
(dp2487
sg82
g2472
sg75
(lp2488
g68
(g69
g70
NtRp2489
(dp2490
g73
(dp2491
g81
I3
ssg82
g2485
sg75
(lp2492
g1079
asbasbasbag68
(g84
g70
NtRp2493
(dp2494
g73
(dp2495
sg82
g2090
sg75
(lp2496
g68
(g89
g70
NtRp2497
(dp2498
g73
(dp2499
g93
g94
ssg82
g2493
sg75
(lp2500
S'SERVER_SOFTWARE'
p2501
asbag68
(g89
g70
NtRp2502
(dp2503
g73
(dp2504
g100
g101
ssg82
g2493
sg75
(lp2505
S':'
asbag68
(g89
g70
NtRp2506
(dp2507
g73
(dp2508
sg82
g2493
sg75
(lp2509
g68
(g69
g70
NtRp2510
(dp2511
g73
(dp2512
g81
I3
ssg82
g2506
sg75
(lp2513
g1101
asbasbasbag68
(g84
g70
NtRp2514
(dp2515
g73
(dp2516
sg82
g2090
sg75
(lp2517
g68
(g89
g70
NtRp2518
(dp2519
g73
(dp2520
g93
g94
ssg82
g2514
sg75
(lp2521
S'wsgi.errors'
p2522
asbag68
(g89
g70
NtRp2523
(dp2524
g73
(dp2525
g100
g101
ssg82
g2514
sg75
(lp2526
S':'
asbag68
(g89
g70
NtRp2527
(dp2528
g73
(dp2529
sg82
g2514
sg75
(lp2530
g68
(g69
g70
NtRp2531
(dp2532
g73
(dp2533
g81
I3
ssg82
g2527
sg75
(lp2534
S"<open file '<stderr>', mode 'w' at 0xb73ea0d0>"
p2535
asbasbasbag68
(g84
g70
NtRp2536
(dp2537
g73
(dp2538
sg82
g2090
sg75
(lp2539
g68
(g89
g70
NtRp2540
(dp2541
g73
(dp2542
g93
g94
ssg82
g2536
sg75
(lp2543
S'wsgi.file_wrapper'
p2544
asbag68
(g89
g70
NtRp2545
(dp2546
g73
(dp2547
g100
g101
ssg82
g2536
sg75
(lp2548
S':'
asbag68
(g89
g70
NtRp2549
(dp2550
g73
(dp2551
sg82
g2536
sg75
(lp2552
g68
(g69
g70
NtRp2553
(dp2554
g73
(dp2555
g81
I3
ssg82
g2549
sg75
(lp2556
S'<class wsgiref.util.FileWrapper at 0x9bf220c>'
p2557
asbasbasbag68
(g84
g70
NtRp2558
(dp2559
g73
(dp2560
sg82
g2090
sg75
(lp2561
g68
(g89
g70
NtRp2562
(dp2563
g73
(dp2564
g93
g94
ssg82
g2558
sg75
(lp2565
S'wsgi.input'
p2566
asbag68
(g89
g70
NtRp2567
(dp2568
g73
(dp2569
g100
g101
ssg82
g2558
sg75
(lp2570
S':'
asbag68
(g89
g70
NtRp2571
(dp2572
g73
(dp2573
sg82
g2558
sg75
(lp2574
g68
(g69
g70
NtRp2575
(dp2576
g73
(dp2577
g81
I3
ssg82
g2571
sg75
(lp2578
S'<cStringIO.StringO object at 0x9e1ae80>'
p2579
asbasbasbag68
(g84
g70
NtRp2580
(dp2581
g73
(dp2582
sg82
g2090
sg75
(lp2583
g68
(g89
g70
NtRp2584
(dp2585
g73
(dp2586
g93
g94
ssg82
g2580
sg75
(lp2587
S'wsgi.multiprocess'
p2588
asbag68
(g89
g70
NtRp2589
(dp2590
g73
(dp2591
g100
g101
ssg82
g2580
sg75
(lp2592
S':'
asbag68
(g89
g70
NtRp2593
(dp2594
g73
(dp2595
sg82
g2580
sg75
(lp2596
g68
(g69
g70
NtRp2597
(dp2598
g73
(dp2599
g81
I3
ssg82
g2593
sg75
(lp2600
g111
asbasbasbag68
(g84
g70
NtRp2601
(dp2602
g73
(dp2603
sg82
g2090
sg75
(lp2604
g68
(g89
g70
NtRp2605
(dp2606
g73
(dp2607
g93
g94
ssg82
g2601
sg75
(lp2608
S'wsgi.multithread'
p2609
asbag68
(g89
g70
NtRp2610
(dp2611
g73
(dp2612
g100
g101
ssg82
g2601
sg75
(lp2613
S':'
asbag68
(g89
g70
NtRp2614
(dp2615
g73
(dp2616
sg82
g2601
sg75
(lp2617
g68
(g69
g70
NtRp2618
(dp2619
g73
(dp2620
g81
I3
ssg82
g2614
sg75
(lp2621
g1341
asbasbasbag68
(g84
g70
NtRp2622
(dp2623
g73
(dp2624
sg82
g2090
sg75
(lp2625
g68
(g89
g70
NtRp2626
(dp2627
g73
(dp2628
g93
g94
ssg82
g2622
sg75
(lp2629
S'wsgi.run_once'
p2630
asbag68
(g89
g70
NtRp2631
(dp2632
g73
(dp2633
g100
g101
ssg82
g2622
sg75
(lp2634
S':'
asbag68
(g89
g70
NtRp2635
(dp2636
g73
(dp2637
sg82
g2622
sg75
(lp2638
g68
(g69
g70
NtRp2639
(dp2640
g73
(dp2641
g81
I3
ssg82
g2635
sg75
(lp2642
g111
asbasbasbag68
(g84
g70
NtRp2643
(dp2644
g73
(dp2645
sg82
g2090
sg75
(lp2646
g68
(g89
g70
NtRp2647
(dp2648
g73
(dp2649
g93
g94
ssg82
g2643
sg75
(lp2650
S'wsgi.url_scheme'
p2651
asbag68
(g89
g70
NtRp2652
(dp2653
g73
(dp2654
g100
g101
ssg82
g2643
sg75
(lp2655
S':'
asbag68
(g89
g70
NtRp2656
(dp2657
g73
(dp2658
sg82
g2643
sg75
(lp2659
g68
(g69
g70
NtRp2660
(dp2661
g73
(dp2662
g81
I3
ssg82
g2656
sg75
(lp2663
g1384
asbasbasbag68
(g84
g70
NtRp2664
(dp2665
g73
(dp2666
sg82
g2090
sg75
(lp2667
g68
(g89
g70
NtRp2668
(dp2669
g73
(dp2670
g93
g94
ssg82
g2664
sg75
(lp2671
S'wsgi.version'
p2672
asbag68
(g89
g70
NtRp2673
(dp2674
g73
(dp2675
g100
g101
ssg82
g2664
sg75
(lp2676
S':'
asbag68
(g89
g70
NtRp2677
(dp2678
g73
(dp2679
sg82
g2664
sg75
(lp2680
g68
(g69
g70
NtRp2681
(dp2682
g73
(dp2683
g81
I3
ssg82
g2677
sg75
(lp2684
S'1'
asbasbasbasbasbasbasbasbasbasbasbasbasbsS'frames'
p2685
(lp2686
(dp2687
S'file'
p2688
S'/home/kaique/Projects/WebApps/web2py/gluon/restricted.py'
p2689
sS'dump'
p2690
(dp2691
S'code'
p2692
S"'# -*- coding: utf-8 -*-\\n\\n#######################...= auth.user_id, required=True),\\n\\t\\t\\t\\t, signature)\\n'"
p2693
sS'layer'
p2694
S"'/home/kaique/Projects/WebApps/web2py/applications/makebrand/models/db.py'"
p2695
sS'global compile2'
p2696
S'<function compile2>'
p2697
sS'ccode'
p2698
S'undefined'
p2699
ssS'lnum'
p2700
I203
sS'lines'
p2701
(dp2702
I198
S"    environment['__file__'] = layer"
p2703
sI199
S'    try:'
p2704
sI200
S'        if type(code) == types.CodeType:'
p2705
sI201
S'            ccode = code'
p2706
sI202
S'        else:'
p2707
sI203
S'            ccode = compile2(code,layer)'
p2708
sI204
S'        exec ccode in environment'
p2709
sI205
S'    except HTTP:'
p2710
sI206
S'        raise'
p2711
sI207
S'    except RestrictedError:'
p2712
ssS'call'
p2713
S"(code='# -*- coding: utf-8 -*-\\n\\n#######################...= auth.user_id, required=True),\\n\\t\\t\\t\\t, signature)\\n', environment={'A': <class 'gluon.html.A'>, 'B': <class 'gluon.html.B'>, 'BEAUTIFY': <class 'gluon.html.BEAUTIFY'>, 'BODY': <class 'gluon.html.BODY'>, 'BR': <class 'gluon.html.BR'>, 'BUTTON': <class 'gluon.html.BUTTON'>, 'CAT': <class 'gluon.html.CAT'>, 'CENTER': <class 'gluon.html.CENTER'>, 'CLEANUP': <class 'gluon.validators.CLEANUP'>, 'CODE': <class 'gluon.html.CODE'>, ...}, layer='/home/kaique/Projects/WebApps/web2py/applications/makebrand/models/db.py')"
p2714
sS'func'
p2715
S'restricted'
p2716
sa(dp2717
g2688
S'/home/kaique/Projects/WebApps/web2py/gluon/restricted.py'
p2718
sg2690
(dp2719
S'builtincompile'
p2720
S'<built-in function compile>'
p2721
sS'code'
p2722
S"'# -*- coding: utf-8 -*-\\n\\n#######################...= auth.user_id, required=True),\\n\\t\\t\\t\\t, signature)\\n'"
p2723
sS'code.rstrip'
p2724
S'<built-in method rstrip of str object>'
p2725
sS').replace'
p2726
g2699
sS'layer'
p2727
S"'/home/kaique/Projects/WebApps/web2py/applications/makebrand/models/db.py'"
p2728
ssg2700
I189
sg2701
(dp2729
I192
S'    """'
p2730
sI193
S'    runs code in environment and returns the output. if an exception occurs'
p2731
sI184
S''
sI185
S'def compile2(code,layer):'
p2732
sI186
S'    """'
p2733
sI187
S"    The +'\\n' is necessary else compile fails when code ends in a comment."
p2734
sI188
S'    """'
p2735
sI189
S"    return compile(code.rstrip().replace('\\r\\n','\\n')+'\\n', layer, 'exec')"
p2736
sI190
S''
sI191
S"def restricted(code, environment=None, layer='Unknown'):"
p2737
ssg2713
S"(code='# -*- coding: utf-8 -*-\\n\\n#######################...= auth.user_id, required=True),\\n\\t\\t\\t\\t, signature)\\n', layer='/home/kaique/Projects/WebApps/web2py/applications/makebrand/models/db.py')"
p2738
sg2715
S'compile2'
p2739
sasS'pyver'
p2740
S'Python 2.7.2+: /usr/bin/python'
p2741
sS'session'
p2742
g68
(g69
g70
NtRp2743
(dp2744
g73
(dp2745
sg75
(lp2746
g68
(g77
g70
NtRp2747
(dp2748
g73
(dp2749
g81
I5
ssg82
Nsg75
(lp2750
g68
(g84
g70
NtRp2751
(dp2752
g73
(dp2753
sg82
g2747
sg75
(lp2754
g68
(g89
g70
NtRp2755
(dp2756
g73
(dp2757
g93
g94
ssg82
g2751
sg75
(lp2758
S'auth'
p2759
asbag68
(g89
g70
NtRp2760
(dp2761
g73
(dp2762
g100
g101
ssg82
g2751
sg75
(lp2763
S':'
asbag68
(g89
g70
NtRp2764
(dp2765
g73
(dp2766
sg82
g2751
sg75
(lp2767
g68
(g69
g70
NtRp2768
(dp2769
g73
(dp2770
g81
I5
ssg82
g2764
sg75
(lp2771
g68
(g77
g70
NtRp2772
(dp2773
g73
(dp2774
g81
I4
ssg82
Nsg75
(lp2775
g68
(g84
g70
NtRp2776
(dp2777
g73
(dp2778
sg82
g2772
sg75
(lp2779
g68
(g89
g70
NtRp2780
(dp2781
g73
(dp2782
g93
g94
ssg82
g2776
sg75
(lp2783
S'expiration'
p2784
asbag68
(g89
g70
NtRp2785
(dp2786
g73
(dp2787
g100
g101
ssg82
g2776
sg75
(lp2788
S':'
asbag68
(g89
g70
NtRp2789
(dp2790
g73
(dp2791
sg82
g2776
sg75
(lp2792
g68
(g69
g70
NtRp2793
(dp2794
g73
(dp2795
g81
I4
ssg82
g2789
sg75
(lp2796
S'2592000'
p2797
asbasbasbag68
(g84
g70
NtRp2798
(dp2799
g73
(dp2800
sg82
g2772
sg75
(lp2801
g68
(g89
g70
NtRp2802
(dp2803
g73
(dp2804
g93
g94
ssg82
g2798
sg75
(lp2805
S'hmac_key'
p2806
asbag68
(g89
g70
NtRp2807
(dp2808
g73
(dp2809
g100
g101
ssg82
g2798
sg75
(lp2810
S':'
asbag68
(g89
g70
NtRp2811
(dp2812
g73
(dp2813
sg82
g2798
sg75
(lp2814
g68
(g69
g70
NtRp2815
(dp2816
g73
(dp2817
g81
I4
ssg82
g2811
sg75
(lp2818
S'd4e7748e-9918-480f-94d5-a40184093efb'
p2819
asbasbasbag68
(g84
g70
NtRp2820
(dp2821
g73
(dp2822
sg82
g2772
sg75
(lp2823
g68
(g89
g70
NtRp2824
(dp2825
g73
(dp2826
g93
g94
ssg82
g2820
sg75
(lp2827
S'last_visit'
p2828
asbag68
(g89
g70
NtRp2829
(dp2830
g73
(dp2831
g100
g101
ssg82
g2820
sg75
(lp2832
S':'
asbag68
(g89
g70
NtRp2833
(dp2834
g73
(dp2835
sg82
g2820
sg75
(lp2836
g68
(g69
g70
NtRp2837
(dp2838
g73
(dp2839
g81
I4
ssg82
g2833
sg75
(lp2840
S'datetime.datetime(2012, 1, 30, 16, 55, 11, 686713)'
p2841
asbasbasbag68
(g84
g70
NtRp2842
(dp2843
g73
(dp2844
sg82
g2772
sg75
(lp2845
g68
(g89
g70
NtRp2846
(dp2847
g73
(dp2848
g93
g94
ssg82
g2842
sg75
(lp2849
S'remember'
p2850
asbag68
(g89
g70
NtRp2851
(dp2852
g73
(dp2853
g100
g101
ssg82
g2842
sg75
(lp2854
S':'
asbag68
(g89
g70
NtRp2855
(dp2856
g73
(dp2857
sg82
g2842
sg75
(lp2858
g68
(g69
g70
NtRp2859
(dp2860
g73
(dp2861
g81
I4
ssg82
g2855
sg75
(lp2862
g111
asbasbasbag68
(g84
g70
NtRp2863
(dp2864
g73
(dp2865
sg82
g2772
sg75
(lp2866
g68
(g89
g70
NtRp2867
(dp2868
g73
(dp2869
g93
g94
ssg82
g2863
sg75
(lp2870
S'user'
p2871
asbag68
(g89
g70
NtRp2872
(dp2873
g73
(dp2874
g100
g101
ssg82
g2863
sg75
(lp2875
S':'
asbag68
(g89
g70
NtRp2876
(dp2877
g73
(dp2878
sg82
g2863
sg75
(lp2879
g68
(g69
g70
NtRp2880
(dp2881
g73
(dp2882
g81
I4
ssg82
g2876
sg75
(lp2883
g68
(g77
g70
NtRp2884
(dp2885
g73
(dp2886
g81
I3
ssg82
Nsg75
(lp2887
g68
(g84
g70
NtRp2888
(dp2889
g73
(dp2890
sg82
g2884
sg75
(lp2891
g68
(g89
g70
NtRp2892
(dp2893
g73
(dp2894
g93
g94
ssg82
g2888
sg75
(lp2895
S'email'
p2896
asbag68
(g89
g70
NtRp2897
(dp2898
g73
(dp2899
g100
g101
ssg82
g2888
sg75
(lp2900
S':'
asbag68
(g89
g70
NtRp2901
(dp2902
g73
(dp2903
sg82
g2888
sg75
(lp2904
g68
(g69
g70
NtRp2905
(dp2906
g73
(dp2907
g81
I3
ssg82
g2901
sg75
(lp2908
S'kaique.developer@gmail.com'
p2909
asbasbasbag68
(g84
g70
NtRp2910
(dp2911
g73
(dp2912
sg82
g2884
sg75
(lp2913
g68
(g89
g70
NtRp2914
(dp2915
g73
(dp2916
g93
g94
ssg82
g2910
sg75
(lp2917
S'first_name'
p2918
asbag68
(g89
g70
NtRp2919
(dp2920
g73
(dp2921
g100
g101
ssg82
g2910
sg75
(lp2922
S':'
asbag68
(g89
g70
NtRp2923
(dp2924
g73
(dp2925
sg82
g2910
sg75
(lp2926
g68
(g69
g70
NtRp2927
(dp2928
g73
(dp2929
g81
I3
ssg82
g2923
sg75
(lp2930
S'kaique'
p2931
asbasbasbag68
(g84
g70
NtRp2932
(dp2933
g73
(dp2934
sg82
g2884
sg75
(lp2935
g68
(g89
g70
NtRp2936
(dp2937
g73
(dp2938
g93
g94
ssg82
g2932
sg75
(lp2939
S'id'
p2940
asbag68
(g89
g70
NtRp2941
(dp2942
g73
(dp2943
g100
g101
ssg82
g2932
sg75
(lp2944
S':'
asbag68
(g89
g70
NtRp2945
(dp2946
g73
(dp2947
sg82
g2932
sg75
(lp2948
g68
(g69
g70
NtRp2949
(dp2950
g73
(dp2951
g81
I3
ssg82
g2945
sg75
(lp2952
S'1'
asbasbasbag68
(g84
g70
NtRp2953
(dp2954
g73
(dp2955
sg82
g2884
sg75
(lp2956
g68
(g89
g70
NtRp2957
(dp2958
g73
(dp2959
g93
g94
ssg82
g2953
sg75
(lp2960
S'last_name'
p2961
asbag68
(g89
g70
NtRp2962
(dp2963
g73
(dp2964
g100
g101
ssg82
g2953
sg75
(lp2965
S':'
asbag68
(g89
g70
NtRp2966
(dp2967
g73
(dp2968
sg82
g2953
sg75
(lp2969
g68
(g69
g70
NtRp2970
(dp2971
g73
(dp2972
g81
I3
ssg82
g2966
sg75
(lp2973
S'silva'
p2974
asbasbasbag68
(g84
g70
NtRp2975
(dp2976
g73
(dp2977
sg82
g2884
sg75
(lp2978
g68
(g89
g70
NtRp2979
(dp2980
g73
(dp2981
g93
g94
ssg82
g2975
sg75
(lp2982
S'password'
p2983
asbag68
(g89
g70
NtRp2984
(dp2985
g73
(dp2986
g100
g101
ssg82
g2975
sg75
(lp2987
S':'
asbag68
(g89
g70
NtRp2988
(dp2989
g73
(dp2990
sg82
g2975
sg75
(lp2991
g68
(g69
g70
NtRp2992
(dp2993
g73
(dp2994
g81
I3
ssg82
g2988
sg75
(lp2995
S'72c6a018d62d3fb47d95389e4a062cd2'
p2996
asbasbasbag68
(g84
g70
NtRp2997
(dp2998
g73
(dp2999
sg82
g2884
sg75
(lp3000
g68
(g89
g70
NtRp3001
(dp3002
g73
(dp3003
g93
g94
ssg82
g2997
sg75
(lp3004
S'registration_id'
p3005
asbag68
(g89
g70
NtRp3006
(dp3007
g73
(dp3008
g100
g101
ssg82
g2997
sg75
(lp3009
S':'
asbag68
(g89
g70
NtRp3010
(dp3011
g73
(dp3012
sg82
g2997
sg75
(lp3013
g68
(g69
g70
NtRp3014
(dp3015
g73
(dp3016
g81
I3
ssg82
g3010
sg75
(lp3017
S''
asbasbasbag68
(g84
g70
NtRp3018
(dp3019
g73
(dp3020
sg82
g2884
sg75
(lp3021
g68
(g89
g70
NtRp3022
(dp3023
g73
(dp3024
g93
g94
ssg82
g3018
sg75
(lp3025
S'registration_key'
p3026
asbag68
(g89
g70
NtRp3027
(dp3028
g73
(dp3029
g100
g101
ssg82
g3018
sg75
(lp3030
S':'
asbag68
(g89
g70
NtRp3031
(dp3032
g73
(dp3033
sg82
g3018
sg75
(lp3034
g68
(g69
g70
NtRp3035
(dp3036
g73
(dp3037
g81
I3
ssg82
g3031
sg75
(lp3038
S''
asbasbasbag68
(g84
g70
NtRp3039
(dp3040
g73
(dp3041
sg82
g2884
sg75
(lp3042
g68
(g89
g70
NtRp3043
(dp3044
g73
(dp3045
g93
g94
ssg82
g3039
sg75
(lp3046
S'reset_password_key'
p3047
asbag68
(g89
g70
NtRp3048
(dp3049
g73
(dp3050
g100
g101
ssg82
g3039
sg75
(lp3051
S':'
asbag68
(g89
g70
NtRp3052
(dp3053
g73
(dp3054
sg82
g3039
sg75
(lp3055
g68
(g69
g70
NtRp3056
(dp3057
g73
(dp3058
g81
I3
ssg82
g3052
sg75
(lp3059
S''
asbasbasbasbasbasbasbasbasbasbasbasbasbsS'etype'
p3060
S"<type 'exceptions.SyntaxError'>"
p3061
sS'date'
p3062
S'Mon Jan 30 17:01:47 2012'
p3063
sS'response'
p3064
g68
(g69
g70
NtRp3065
(dp3066
g73
(dp3067
sg75
(lp3068
g68
(g77
g70
NtRp3069
(dp3070
g73
(dp3071
g81
I5
ssg82
Nsg75
(lp3072
g68
(g84
g70
NtRp3073
(dp3074
g73
(dp3075
sg82
g3069
sg75
(lp3076
g68
(g89
g70
NtRp3077
(dp3078
g73
(dp3079
g93
g94
ssg82
g3073
sg75
(lp3080
g166
asbag68
(g89
g70
NtRp3081
(dp3082
g73
(dp3083
g100
g101
ssg82
g3073
sg75
(lp3084
S':'
asbag68
(g89
g70
NtRp3085
(dp3086
g73
(dp3087
sg82
g3073
sg75
(lp3088
g68
(g69
g70
NtRp3089
(dp3090
g73
(dp3091
g81
I5
ssg82
g3085
sg75
(lp3092
S'<cStringIO.StringO object at 0x9e1a140>'
p3093
asbasbasbag68
(g84
g70
NtRp3094
(dp3095
g73
(dp3096
sg82
g3069
sg75
(lp3097
g68
(g89
g70
NtRp3098
(dp3099
g73
(dp3100
g93
g94
ssg82
g3094
sg75
(lp3101
g232
asbag68
(g89
g70
NtRp3102
(dp3103
g73
(dp3104
g100
g101
ssg82
g3094
sg75
(lp3105
S':'
asbag68
(g89
g70
NtRp3106
(dp3107
g73
(dp3108
sg82
g3094
sg75
(lp3109
g68
(g69
g70
NtRp3110
(dp3111
g73
(dp3112
g81
I5
ssg82
g3106
sg75
(lp3113
g68
(g77
g70
NtRp3114
(dp3115
g73
(dp3116
g81
I4
ssg82
Nsg75
(lp3117
g68
(g84
g70
NtRp3118
(dp3119
g73
(dp3120
sg82
g3114
sg75
(lp3121
g68
(g89
g70
NtRp3122
(dp3123
g73
(dp3124
g93
g94
ssg82
g3118
sg75
(lp3125
S'session_id_makebrand'
p3126
asbag68
(g89
g70
NtRp3127
(dp3128
g73
(dp3129
g100
g101
ssg82
g3118
sg75
(lp3130
S':'
asbag68
(g89
g70
NtRp3131
(dp3132
g73
(dp3133
sg82
g3118
sg75
(lp3134
g68
(g69
g70
NtRp3135
(dp3136
g73
(dp3137
g81
I4
ssg82
g3131
sg75
(lp3138
g68
(g77
g70
NtRp3139
(dp3140
g73
(dp3141
g81
I3
ssg82
Nsg75
(lp3142
g68
(g84
g70
NtRp3143
(dp3144
g73
(dp3145
sg82
g3139
sg75
(lp3146
g68
(g89
g70
NtRp3147
(dp3148
g73
(dp3149
g93
g94
ssg82
g3143
sg75
(lp3150
g282
asbag68
(g89
g70
NtRp3151
(dp3152
g73
(dp3153
g100
g101
ssg82
g3143
sg75
(lp3154
S':'
asbag68
(g89
g70
NtRp3155
(dp3156
g73
(dp3157
sg82
g3143
sg75
(lp3158
g68
(g69
g70
NtRp3159
(dp3160
g73
(dp3161
g81
I3
ssg82
g3155
sg75
(lp3162
S''
asbasbasbag68
(g84
g70
NtRp3163
(dp3164
g73
(dp3165
sg82
g3139
sg75
(lp3166
g68
(g89
g70
NtRp3167
(dp3168
g73
(dp3169
g93
g94
ssg82
g3163
sg75
(lp3170
g303
asbag68
(g89
g70
NtRp3171
(dp3172
g73
(dp3173
g100
g101
ssg82
g3163
sg75
(lp3174
S':'
asbag68
(g89
g70
NtRp3175
(dp3176
g73
(dp3177
sg82
g3163
sg75
(lp3178
g68
(g69
g70
NtRp3179
(dp3180
g73
(dp3181
g81
I3
ssg82
g3175
sg75
(lp3182
S''
asbasbasbag68
(g84
g70
NtRp3183
(dp3184
g73
(dp3185
sg82
g3139
sg75
(lp3186
g68
(g89
g70
NtRp3187
(dp3188
g73
(dp3189
g93
g94
ssg82
g3183
sg75
(lp3190
g324
asbag68
(g89
g70
NtRp3191
(dp3192
g73
(dp3193
g100
g101
ssg82
g3183
sg75
(lp3194
S':'
asbag68
(g89
g70
NtRp3195
(dp3196
g73
(dp3197
sg82
g3183
sg75
(lp3198
g68
(g69
g70
NtRp3199
(dp3200
g73
(dp3201
g81
I3
ssg82
g3195
sg75
(lp3202
S''
asbasbasbag68
(g84
g70
NtRp3203
(dp3204
g73
(dp3205
sg82
g3139
sg75
(lp3206
g68
(g89
g70
NtRp3207
(dp3208
g73
(dp3209
g93
g94
ssg82
g3203
sg75
(lp3210
g345
asbag68
(g89
g70
NtRp3211
(dp3212
g73
(dp3213
g100
g101
ssg82
g3203
sg75
(lp3214
S':'
asbag68
(g89
g70
NtRp3215
(dp3216
g73
(dp3217
sg82
g3203
sg75
(lp3218
g68
(g69
g70
NtRp3219
(dp3220
g73
(dp3221
g81
I3
ssg82
g3215
sg75
(lp3222
S''
asbasbasbag68
(g84
g70
NtRp3223
(dp3224
g73
(dp3225
sg82
g3139
sg75
(lp3226
g68
(g89
g70
NtRp3227
(dp3228
g73
(dp3229
g93
g94
ssg82
g3223
sg75
(lp3230
g366
asbag68
(g89
g70
NtRp3231
(dp3232
g73
(dp3233
g100
g101
ssg82
g3223
sg75
(lp3234
S':'
asbag68
(g89
g70
NtRp3235
(dp3236
g73
(dp3237
sg82
g3223
sg75
(lp3238
g68
(g69
g70
NtRp3239
(dp3240
g73
(dp3241
g81
I3
ssg82
g3235
sg75
(lp3242
S''
asbasbasbag68
(g84
g70
NtRp3243
(dp3244
g73
(dp3245
sg82
g3139
sg75
(lp3246
g68
(g89
g70
NtRp3247
(dp3248
g73
(dp3249
g93
g94
ssg82
g3243
sg75
(lp3250
g387
asbag68
(g89
g70
NtRp3251
(dp3252
g73
(dp3253
g100
g101
ssg82
g3243
sg75
(lp3254
S':'
asbag68
(g89
g70
NtRp3255
(dp3256
g73
(dp3257
sg82
g3243
sg75
(lp3258
g68
(g69
g70
NtRp3259
(dp3260
g73
(dp3261
g81
I3
ssg82
g3255
sg75
(lp3262
S'/'
asbasbasbag68
(g84
g70
NtRp3263
(dp3264
g73
(dp3265
sg82
g3139
sg75
(lp3266
g68
(g89
g70
NtRp3267
(dp3268
g73
(dp3269
g93
g94
ssg82
g3263
sg75
(lp3270
g408
asbag68
(g89
g70
NtRp3271
(dp3272
g73
(dp3273
g100
g101
ssg82
g3263
sg75
(lp3274
S':'
asbag68
(g89
g70
NtRp3275
(dp3276
g73
(dp3277
sg82
g3263
sg75
(lp3278
g68
(g69
g70
NtRp3279
(dp3280
g73
(dp3281
g81
I3
ssg82
g3275
sg75
(lp3282
S''
asbasbasbag68
(g84
g70
NtRp3283
(dp3284
g73
(dp3285
sg82
g3139
sg75
(lp3286
g68
(g89
g70
NtRp3287
(dp3288
g73
(dp3289
g93
g94
ssg82
g3283
sg75
(lp3290
g429
asbag68
(g89
g70
NtRp3291
(dp3292
g73
(dp3293
g100
g101
ssg82
g3283
sg75
(lp3294
S':'
asbag68
(g89
g70
NtRp3295
(dp3296
g73
(dp3297
sg82
g3283
sg75
(lp3298
g68
(g69
g70
NtRp3299
(dp3300
g73
(dp3301
g81
I3
ssg82
g3295
sg75
(lp3302
S''
asbasbasbasbasbasbasbasbasbasbasbag68
(g84
g70
NtRp3303
(dp3304
g73
(dp3305
sg82
g3069
sg75
(lp3306
g68
(g89
g70
NtRp3307
(dp3308
g73
(dp3309
g93
g94
ssg82
g3303
sg75
(lp3310
S'files'
p3311
asbag68
(g89
g70
NtRp3312
(dp3313
g73
(dp3314
g100
g101
ssg82
g3303
sg75
(lp3315
S':'
asbag68
(g89
g70
NtRp3316
(dp3317
g73
(dp3318
sg82
g3303
sg75
(lp3319
g68
(g69
g70
NtRp3320
(dp3321
g73
(dp3322
g81
I5
ssg82
g3316
sg75
(lp3323
g68
(g77
g70
NtRp3324
(dp3325
g73
(dp3326
g81
I4
ssg82
Nsg75
(lp3327
sbasbasbasbag68
(g84
g70
NtRp3328
(dp3329
g73
(dp3330
sg82
g3069
sg75
(lp3331
g68
(g89
g70
NtRp3332
(dp3333
g73
(dp3334
g93
g94
ssg82
g3328
sg75
(lp3335
S'flash'
p3336
asbag68
(g89
g70
NtRp3337
(dp3338
g73
(dp3339
g100
g101
ssg82
g3328
sg75
(lp3340
S':'
asbag68
(g89
g70
NtRp3341
(dp3342
g73
(dp3343
sg82
g3328
sg75
(lp3344
g68
(g69
g70
NtRp3345
(dp3346
g73
(dp3347
g81
I5
ssg82
g3341
sg75
(lp3348
S''
asbasbasbag68
(g84
g70
NtRp3349
(dp3350
g73
(dp3351
sg82
g3069
sg75
(lp3352
g68
(g89
g70
NtRp3353
(dp3354
g73
(dp3355
g93
g94
ssg82
g3349
sg75
(lp3356
S'generic_patterns'
p3357
asbag68
(g89
g70
NtRp3358
(dp3359
g73
(dp3360
g100
g101
ssg82
g3349
sg75
(lp3361
S':'
asbag68
(g89
g70
NtRp3362
(dp3363
g73
(dp3364
sg82
g3349
sg75
(lp3365
g68
(g69
g70
NtRp3366
(dp3367
g73
(dp3368
g81
I5
ssg82
g3362
sg75
(lp3369
g68
(g77
g70
NtRp3370
(dp3371
g73
(dp3372
g81
I4
ssg82
Nsg75
(lp3373
sbasbasbasbag68
(g84
g70
NtRp3374
(dp3375
g73
(dp3376
sg82
g3069
sg75
(lp3377
g68
(g89
g70
NtRp3378
(dp3379
g73
(dp3380
g93
g94
ssg82
g3374
sg75
(lp3381
S'headers'
p3382
asbag68
(g89
g70
NtRp3383
(dp3384
g73
(dp3385
g100
g101
ssg82
g3374
sg75
(lp3386
S':'
asbag68
(g89
g70
NtRp3387
(dp3388
g73
(dp3389
sg82
g3374
sg75
(lp3390
g68
(g69
g70
NtRp3391
(dp3392
g73
(dp3393
g81
I5
ssg82
g3387
sg75
(lp3394
g68
(g77
g70
NtRp3395
(dp3396
g73
(dp3397
g81
I4
ssg82
Nsg75
(lp3398
g68
(g84
g70
NtRp3399
(dp3400
g73
(dp3401
sg82
g3395
sg75
(lp3402
g68
(g89
g70
NtRp3403
(dp3404
g73
(dp3405
g93
g94
ssg82
g3399
sg75
(lp3406
S'Cache-Control'
p3407
asbag68
(g89
g70
NtRp3408
(dp3409
g73
(dp3410
g100
g101
ssg82
g3399
sg75
(lp3411
S':'
asbag68
(g89
g70
NtRp3412
(dp3413
g73
(dp3414
sg82
g3399
sg75
(lp3415
g68
(g69
g70
NtRp3416
(dp3417
g73
(dp3418
g81
I4
ssg82
g3412
sg75
(lp3419
S'no-store, no-cache, must-revalidate, post-check=0, pre-check=0'
p3420
asbasbasbag68
(g84
g70
NtRp3421
(dp3422
g73
(dp3423
sg82
g3395
sg75
(lp3424
g68
(g89
g70
NtRp3425
(dp3426
g73
(dp3427
g93
g94
ssg82
g3421
sg75
(lp3428
S'Content-Type'
p3429
asbag68
(g89
g70
NtRp3430
(dp3431
g73
(dp3432
g100
g101
ssg82
g3421
sg75
(lp3433
S':'
asbag68
(g89
g70
NtRp3434
(dp3435
g73
(dp3436
sg82
g3421
sg75
(lp3437
g68
(g69
g70
NtRp3438
(dp3439
g73
(dp3440
g81
I4
ssg82
g3434
sg75
(lp3441
S'text/html; charset=utf-8'
p3442
asbasbasbag68
(g84
g70
NtRp3443
(dp3444
g73
(dp3445
sg82
g3395
sg75
(lp3446
g68
(g89
g70
NtRp3447
(dp3448
g73
(dp3449
g93
g94
ssg82
g3443
sg75
(lp3450
S'Expires'
p3451
asbag68
(g89
g70
NtRp3452
(dp3453
g73
(dp3454
g100
g101
ssg82
g3443
sg75
(lp3455
S':'
asbag68
(g89
g70
NtRp3456
(dp3457
g73
(dp3458
sg82
g3443
sg75
(lp3459
g68
(g69
g70
NtRp3460
(dp3461
g73
(dp3462
g81
I4
ssg82
g3456
sg75
(lp3463
S'Mon, 30 Jan 2012 19:01:47 GMT'
p3464
asbasbasbag68
(g84
g70
NtRp3465
(dp3466
g73
(dp3467
sg82
g3395
sg75
(lp3468
g68
(g89
g70
NtRp3469
(dp3470
g73
(dp3471
g93
g94
ssg82
g3465
sg75
(lp3472
S'Pragma'
p3473
asbag68
(g89
g70
NtRp3474
(dp3475
g73
(dp3476
g100
g101
ssg82
g3465
sg75
(lp3477
S':'
asbag68
(g89
g70
NtRp3478
(dp3479
g73
(dp3480
sg82
g3465
sg75
(lp3481
g68
(g69
g70
NtRp3482
(dp3483
g73
(dp3484
g81
I4
ssg82
g3478
sg75
(lp3485
S'no-cache'
p3486
asbasbasbag68
(g84
g70
NtRp3487
(dp3488
g73
(dp3489
sg82
g3395
sg75
(lp3490
g68
(g89
g70
NtRp3491
(dp3492
g73
(dp3493
g93
g94
ssg82
g3487
sg75
(lp3494
S'X-Powered-By'
p3495
asbag68
(g89
g70
NtRp3496
(dp3497
g73
(dp3498
g100
g101
ssg82
g3487
sg75
(lp3499
S':'
asbag68
(g89
g70
NtRp3500
(dp3501
g73
(dp3502
sg82
g3487
sg75
(lp3503
g68
(g69
g70
NtRp3504
(dp3505
g73
(dp3506
g81
I4
ssg82
g3500
sg75
(lp3507
S'web2py'
p3508
asbasbasbasbasbasbasbag68
(g84
g70
NtRp3509
(dp3510
g73
(dp3511
sg82
g3069
sg75
(lp3512
g68
(g89
g70
NtRp3513
(dp3514
g73
(dp3515
g93
g94
ssg82
g3509
sg75
(lp3516
S'menu'
p3517
asbag68
(g89
g70
NtRp3518
(dp3519
g73
(dp3520
g100
g101
ssg82
g3509
sg75
(lp3521
S':'
asbag68
(g89
g70
NtRp3522
(dp3523
g73
(dp3524
sg82
g3509
sg75
(lp3525
g68
(g69
g70
NtRp3526
(dp3527
g73
(dp3528
g81
I5
ssg82
g3522
sg75
(lp3529
g68
(g77
g70
NtRp3530
(dp3531
g73
(dp3532
g81
I4
ssg82
Nsg75
(lp3533
sbasbasbasbag68
(g84
g70
NtRp3534
(dp3535
g73
(dp3536
sg82
g3069
sg75
(lp3537
g68
(g89
g70
NtRp3538
(dp3539
g73
(dp3540
g93
g94
ssg82
g3534
sg75
(lp3541
S'meta'
p3542
asbag68
(g89
g70
NtRp3543
(dp3544
g73
(dp3545
g100
g101
ssg82
g3534
sg75
(lp3546
S':'
asbag68
(g89
g70
NtRp3547
(dp3548
g73
(dp3549
sg82
g3534
sg75
(lp3550
g68
(g69
g70
NtRp3551
(dp3552
g73
(dp3553
g81
I5
ssg82
g3547
sg75
(lp3554
g68
(g77
g70
NtRp3555
(dp3556
g73
(dp3557
g81
I4
ssg82
Nsg75
(lp3558
sbasbasbasbag68
(g84
g70
NtRp3559
(dp3560
g73
(dp3561
sg82
g3069
sg75
(lp3562
g68
(g89
g70
NtRp3563
(dp3564
g73
(dp3565
g93
g94
ssg82
g3559
sg75
(lp3566
S'postprocessing'
p3567
asbag68
(g89
g70
NtRp3568
(dp3569
g73
(dp3570
g100
g101
ssg82
g3559
sg75
(lp3571
S':'
asbag68
(g89
g70
NtRp3572
(dp3573
g73
(dp3574
sg82
g3559
sg75
(lp3575
g68
(g69
g70
NtRp3576
(dp3577
g73
(dp3578
g81
I5
ssg82
g3572
sg75
(lp3579
g68
(g77
g70
NtRp3580
(dp3581
g73
(dp3582
g81
I4
ssg82
Nsg75
(lp3583
sbasbasbasbag68
(g84
g70
NtRp3584
(dp3585
g73
(dp3586
sg82
g3069
sg75
(lp3587
g68
(g89
g70
NtRp3588
(dp3589
g73
(dp3590
g93
g94
ssg82
g3584
sg75
(lp3591
S'session_file'
p3592
asbag68
(g89
g70
NtRp3593
(dp3594
g73
(dp3595
g100
g101
ssg82
g3584
sg75
(lp3596
S':'
asbag68
(g89
g70
NtRp3597
(dp3598
g73
(dp3599
sg82
g3584
sg75
(lp3600
g68
(g69
g70
NtRp3601
(dp3602
g73
(dp3603
g81
I5
ssg82
g3597
sg75
(lp3604
S"<open file '/home/kaique/Projects/WebApps/web2py/applications/makebrand/sessions/127.0.0.1-ae1b9b0f-74d2-4e21-a732-318441651a9c', mode 'rb+' at 0x9deec28>"
p3605
asbasbasbag68
(g84
g70
NtRp3606
(dp3607
g73
(dp3608
sg82
g3069
sg75
(lp3609
g68
(g89
g70
NtRp3610
(dp3611
g73
(dp3612
g93
g94
ssg82
g3606
sg75
(lp3613
S'session_filename'
p3614
asbag68
(g89
g70
NtRp3615
(dp3616
g73
(dp3617
g100
g101
ssg82
g3606
sg75
(lp3618
S':'
asbag68
(g89
g70
NtRp3619
(dp3620
g73
(dp3621
sg82
g3606
sg75
(lp3622
g68
(g69
g70
NtRp3623
(dp3624
g73
(dp3625
g81
I5
ssg82
g3619
sg75
(lp3626
S'/home/kaique/Projects/WebApps/web2py/applications/makebrand/sessions/127.0.0.1-ae1b9b0f-74d2-4e21-a732-318441651a9c'
p3627
asbasbasbag68
(g84
g70
NtRp3628
(dp3629
g73
(dp3630
sg82
g3069
sg75
(lp3631
g68
(g89
g70
NtRp3632
(dp3633
g73
(dp3634
g93
g94
ssg82
g3628
sg75
(lp3635
S'session_id'
p3636
asbag68
(g89
g70
NtRp3637
(dp3638
g73
(dp3639
g100
g101
ssg82
g3628
sg75
(lp3640
S':'
asbag68
(g89
g70
NtRp3641
(dp3642
g73
(dp3643
sg82
g3628
sg75
(lp3644
g68
(g69
g70
NtRp3645
(dp3646
g73
(dp3647
g81
I5
ssg82
g3641
sg75
(lp3648
S'127.0.0.1-ae1b9b0f-74d2-4e21-a732-318441651a9c'
p3649
asbasbasbag68
(g84
g70
NtRp3650
(dp3651
g73
(dp3652
sg82
g3069
sg75
(lp3653
g68
(g89
g70
NtRp3654
(dp3655
g73
(dp3656
g93
g94
ssg82
g3650
sg75
(lp3657
S'session_id_name'
p3658
asbag68
(g89
g70
NtRp3659
(dp3660
g73
(dp3661
g100
g101
ssg82
g3650
sg75
(lp3662
S':'
asbag68
(g89
g70
NtRp3663
(dp3664
g73
(dp3665
sg82
g3650
sg75
(lp3666
g68
(g69
g70
NtRp3667
(dp3668
g73
(dp3669
g81
I5
ssg82
g3663
sg75
(lp3670
g3126
asbasbasbag68
(g84
g70
NtRp3671
(dp3672
g73
(dp3673
sg82
g3069
sg75
(lp3674
g68
(g89
g70
NtRp3675
(dp3676
g73
(dp3677
g93
g94
ssg82
g3671
sg75
(lp3678
S'session_locked'
p3679
asbag68
(g89
g70
NtRp3680
(dp3681
g73
(dp3682
g100
g101
ssg82
g3671
sg75
(lp3683
S':'
asbag68
(g89
g70
NtRp3684
(dp3685
g73
(dp3686
sg82
g3671
sg75
(lp3687
g68
(g69
g70
NtRp3688
(dp3689
g73
(dp3690
g81
I5
ssg82
g3684
sg75
(lp3691
g1341
asbasbasbag68
(g84
g70
NtRp3692
(dp3693
g73
(dp3694
sg82
g3069
sg75
(lp3695
g68
(g89
g70
NtRp3696
(dp3697
g73
(dp3698
g93
g94
ssg82
g3692
sg75
(lp3699
S'session_new'
p3700
asbag68
(g89
g70
NtRp3701
(dp3702
g73
(dp3703
g100
g101
ssg82
g3692
sg75
(lp3704
S':'
asbag68
(g89
g70
NtRp3705
(dp3706
g73
(dp3707
sg82
g3692
sg75
(lp3708
g68
(g69
g70
NtRp3709
(dp3710
g73
(dp3711
g81
I5
ssg82
g3705
sg75
(lp3712
g111
asbasbasbag68
(g84
g70
NtRp3713
(dp3714
g73
(dp3715
sg82
g3069
sg75
(lp3716
g68
(g89
g70
NtRp3717
(dp3718
g73
(dp3719
g93
g94
ssg82
g3713
sg75
(lp3720
S'status'
p3721
asbag68
(g89
g70
NtRp3722
(dp3723
g73
(dp3724
g100
g101
ssg82
g3713
sg75
(lp3725
S':'
asbag68
(g89
g70
NtRp3726
(dp3727
g73
(dp3728
sg82
g3713
sg75
(lp3729
g68
(g69
g70
NtRp3730
(dp3731
g73
(dp3732
g81
I5
ssg82
g3726
sg75
(lp3733
S'200'
p3734
asbasbasbag68
(g84
g70
NtRp3735
(dp3736
g73
(dp3737
sg82
g3069
sg75
(lp3738
g68
(g89
g70
NtRp3739
(dp3740
g73
(dp3741
g93
g94
ssg82
g3735
sg75
(lp3742
g2005
asbag68
(g89
g70
NtRp3743
(dp3744
g73
(dp3745
g100
g101
ssg82
g3735
sg75
(lp3746
S':'
asbag68
(g89
g70
NtRp3747
(dp3748
g73
(dp3749
sg82
g3735
sg75
(lp3750
g68
(g69
g70
NtRp3751
(dp3752
g73
(dp3753
g81
I5
ssg82
g3747
sg75
(lp3754
g2018
asbasbasbag68
(g84
g70
NtRp3755
(dp3756
g73
(dp3757
sg82
g3069
sg75
(lp3758
g68
(g89
g70
NtRp3759
(dp3760
g73
(dp3761
g93
g94
ssg82
g3755
sg75
(lp3762
S'view'
p3763
asbag68
(g89
g70
NtRp3764
(dp3765
g73
(dp3766
g100
g101
ssg82
g3755
sg75
(lp3767
S':'
asbag68
(g89
g70
NtRp3768
(dp3769
g73
(dp3770
sg82
g3755
sg75
(lp3771
g68
(g69
g70
NtRp3772
(dp3773
g73
(dp3774
g81
I5
ssg82
g3768
sg75
(lp3775
S'default/index.html'
p3776
asbasbasbasbasbsS'locals'
p3777
(dp3778
g4
S"'/home/kaique/Projects/WebApps/web2py/applications/makebrand/models/db.py'"
p3779
sg6
S"'# -*- coding: utf-8 -*-\\n\\n#######################...= auth.user_id, required=True),\\n\\t\\t\\t\\t, signature)\\n'"
p3780
sssS'traceback'
p3781
S'Traceback (most recent call last):\n  File "/home/kaique/Projects/WebApps/web2py/gluon/restricted.py", line 203, in restricted\n    ccode = compile2(code,layer)\n  File "/home/kaique/Projects/WebApps/web2py/gluon/restricted.py", line 189, in compile2\n    return compile(code.rstrip().replace(\'\\r\\n\',\'\\n\')+\'\\n\', layer, \'exec\')\n  File "/home/kaique/Projects/WebApps/web2py/applications/makebrand/models/db.py", line 103\n    Field(\'user_id\', db.auth.user_id, default= auth.user_id, required=True),\n        ^\nSyntaxError: invalid syntax\n'
p3782
s.