(dp1
S'output'
p2
S"<type 'exceptions.KeyError'> 'media'"
p3
sS'layer'
p4
S'/home/kaique/Projects/WebApps/web2py/applications/makebrand/models/db.py'
p5
sS'code'
p6
S"# -*- coding: utf-8 -*-\n\n#########################################################################\n## This scaffolding model makes your app work on Google App Engine too\n## File is released under public domain and you can use without limitations\n#########################################################################\n\n## if SSL/HTTPS is properly configured and you want all HTTP requests to\n## be redirected to HTTPS, uncomment the line below:\n# request.requires_https()\n\nif not request.env.web2py_runtime_gae:\n    ## if NOT running on Google App Engine use SQLite or other DB\n    db = DAL('sqlite://storage.sqlite')\nelse:\n    ## connect to Google BigTable (optional 'google:datastore://namespace')\n    db = DAL('google:datastore')\n    ## store sessions and tickets there\n    session.connect(request, response, db = db)\n    ## or store session in Memcache, Redis, etc.\n    ## from gluon.contrib.memdb import MEMDB\n    ## from google.appengine.api.memcache import Client\n    ## session.connect(request, response, db = MEMDB(Client()))\n\n## by default give a view/generic.extension to all actions from localhost\n## none otherwise. a pattern can be 'controller/function.extension'\nresponse.generic_patterns = ['*'] if request.is_local else []\n## (optional) optimize handling of static files\n# response.optimize_css = 'concat,minify,inline'\n# response.optimize_js = 'concat,minify,inline'\n\n#########################################################################\n## Here is sample code if you need for\n## - email capabilities\n## - authentication (registration, login, logout, ... )\n## - authorization (role based authorization)\n## - services (xml, csv, json, xmlrpc, jsonrpc, amf, rss)\n## - old style crud actions\n## (more options discussed in gluon/tools.py)\n#########################################################################\n\nfrom gluon.tools import Auth, Crud, Service, PluginManager, prettydate\nauth = Auth(db, hmac_key=Auth.get_or_create_key())\ncrud, service, plugins = Crud(db), Service(), PluginManager()\n\n## create all tables needed by auth if not custom tables\nauth.define_tables()\n\n## configure email\nmail=auth.settings.mailer\nmail.settings.server = 'logging' or 'smtp.gmail.com:587'\nmail.settings.sender = 'you@gmail.com'\nmail.settings.login = 'username:password'\n\n## configure auth policy\nauth.settings.registration_requires_verification = False\nauth.settings.registration_requires_approval = False\nauth.settings.reset_password_requires_verification = True\n\n## if you need to use OpenID, Facebook, MySpace, Twitter, Linkedin, etc.\n## register with janrain.com, write your domain:api_key in private/janrain.key\nfrom gluon.contrib.login_methods.rpx_account import use_janrain\nuse_janrain(auth,filename='private/janrain.key')\n\n#########################################################################\n## Define your tables below (or better in another model file) for example\n##\n## >>> db.define_table('mytable',Field('myfield','string'))\n##\n## Fields can be 'string','text','password','integer','double','boolean'\n##       'date','time','datetime','blob','upload', 'reference TABLENAME'\n## There is an implicit 'id integer autoincrement' field\n## Consult manual for more options, validators, etc.\n##\n## More API examples for controllers:\n##\n## >>> db.mytable.insert(myfield='value')\n## >>> rows=db(db.mytable.myfield=='value').select(db.mytable.ALL)\n## >>> for row in rows: print row.id, row.myfield\n#########################################################################\n\n\n# Signature, register datatime of the data who was create\nsignature = db.Table(db, \n\t\t\t\t\t 'signature',\n\t\t\t\t\t Field('created_on', 'datetime', default=request.now),\n\t\t\t\t\t Field('created_by', db.auth_user, default=auth.user_id),\t\t\t\n\t\t\t\t\t Field('updated_on', 'datetime', default=request.now),\n\t\t\t\t\t Field('updated_by', db.auth_user, default=auth.user_id) )\n\n# Briefing client table\ndb.define_table('client', \n                Field('name', 'string', required=True),\n                Field('description', 'text', required=True),\n                Field('visibility', 'boolean', required=True),\n                Field('user_id', db.auth_user, default= auth.user_id, required=True),\n                Field('avatar', db.media, required=False), \n                signature)\n\n# Briefing project table\ndb.define_table('project', \n\t\t\t\tField('name', 'string', required=True),\n\t\t\t\tField('description', 'text', required=True),\n\t\t\t\tField('terminated', 'boolean', required=True),\n\t\t\t\tField('client_id', db.client, required=True),\n\t\t\t\tField('user_id', db.auth_user, default= auth.user_id, required=True), \n\t\t\t\tsignature)\n\t\t\t\t\t\t\t\t\n# Briefing sub project table\ndb.define_table('subproject', \n\t\t\t\tField('name', 'string', required=True),\n\t\t\t\tField('description', 'text', required=True),\n\t\t\t\tField('visibility', 'boolean', required=True),\n\t\t\t\tField('project_id', db.project, required=True),\n\t\t\t\tField('user_id', db.auth_user, default= auth.user_id, required=True),\n\t\t\t\tsignature)\n\n# Briefing question table\ndb.define_table('question', \n\t\t\t\tField('name', 'string', required=True),\n\t\t\t\tField('description', 'text', required=True),\n\t\t\t\tField('visibility', 'boolean', required=True),\n\t\t\t\tField('project_id', db.project, required=True),\n\t\t\t\tField('subproject_id', db.project, required=True),\n\t\t\t\tField('user_id', db.auth_user, default= auth.user_id, required=True),\n\t\t\t\tsignature)\n\n# Briefing answer table\ndb.define_table('answer', \n\t\t\t\tField('name', 'string', required=True),\n\t\t\t\tField('description', 'text', required=True),\n\t\t\t\tField('visibility', 'boolean', required=True),\n\t\t\t\tField('project_id', db.project, required=True),\n\t\t\t\tField('subproject_id', db.subproject, required=True),\n\t\t\t\tField('user_id', db.auth_user, default= auth.user_id, required=True),\n\t\t\t\tsignature)\n\n# Briefing media table\ndb.define_table('media', \n\t\t\t\tField('name', 'string', required=True),\n\t\t\t\tField('description', 'text', required=True),\n\t\t\t\tField('visibility', 'boolean', required=True),\n\t\t\t\tField('project_id', db.project, required=True),\n\t\t\t\tField('question_id', db.question, required=False),\n\t\t\t\tField('answer_id', db.question, required=False),\n\t\t\t\tField('file', 'upload', required=True),\n\t\t\t\tsignature)\n"
p7
sS'snapshot'
p8
(dp9
sS'traceback'
p10
S'Traceback (most recent call last):\n  File "/home/kaique/Projects/WebApps/web2py/gluon/restricted.py", line 204, in restricted\n    exec ccode in environment\n  File "/home/kaique/Projects/WebApps/web2py/applications/makebrand/models/db.py", line 97, in <module>\n    Field(\'avatar\', db.media, required=False),\n  File "/home/kaique/Projects/WebApps/web2py/gluon/dal.py", line 5119, in __getattr__\n    return self[key]\n  File "/home/kaique/Projects/WebApps/web2py/gluon/dal.py", line 5113, in __getitem__\n    return dict.__getitem__(self, str(key))\nKeyError: \'media\'\n'
p11
s.