(dp1
S'output'
p2
S"<type 'exceptions.SyntaxError'> widget cannot determine options of client.name"
p3
sS'layer'
p4
S'/home/kaique/Projects/WebApps/web2py/applications/makebrand/models/db.py'
p5
sS'code'
p6
S"# -*- coding: utf-8 -*-\n\n#########################################################################\n## This scaffolding model makes your app work on Google App Engine too\n## File is released under public domain and you can use without limitations\n#########################################################################\n\n## if SSL/HTTPS is properly configured and you want all HTTP requests to\n## be redirected to HTTPS, uncomment the line below:\n# request.requires_https()\n\nif not request.env.web2py_runtime_gae:\n    ## if NOT running on Google App Engine use SQLite or other DB\n    db = DAL('sqlite://storage.sqlite')\nelse:\n    ## connect to Google BigTable (optional 'google:datastore://namespace')\n    db = DAL('google:datastore')\n    ## store sessions and tickets there\n    session.connect(request, response, db = db)\n    ## or store session in Memcache, Redis, etc.\n    ## from gluon.contrib.memdb import MEMDB\n    ## from google.appengine.api.memcache import Client\n    ## session.connect(request, response, db = MEMDB(Client()))\n\n## by default give a view/generic.extension to all actions from localhost\n## none otherwise. a pattern can be 'controller/function.extension'\nresponse.generic_patterns = ['*'] if request.is_local else []\n## (optional) optimize handling of static files\n# response.optimize_css = 'concat,minify,inline'\n# response.optimize_js = 'concat,minify,inline'\n\n#########################################################################\n## Here is sample code if you need for\n## - email capabilities\n## - authentication (registration, login, logout, ... )\n## - authorization (role based authorization)\n## - services (xml, csv, json, xmlrpc, jsonrpc, amf, rss)\n## - old style crud actions\n## (more options discussed in gluon/tools.py)\n#########################################################################\n\nfrom gluon.tools import Auth, Crud, Service, PluginManager, prettydate\nauth = Auth(db, hmac_key=Auth.get_or_create_key())\ncrud, service, plugins = Crud(db), Service(), PluginManager()\n\n## create all tables needed by auth if not custom tables\nauth.define_tables()\n\n## configure email\nmail=auth.settings.mailer\nmail.settings.server = 'logging' or 'smtp.gmail.com:587'\nmail.settings.sender = 'you@gmail.com'\nmail.settings.login = 'username:password'\n\n## configure auth policy\nauth.settings.registration_requires_verification = False\nauth.settings.registration_requires_approval = False\nauth.settings.reset_password_requires_verification = True\n\n## if you need to use OpenID, Facebook, MySpace, Twitter, Linkedin, etc.\n## register with janrain.com, write your domain:api_key in private/janrain.key\nfrom gluon.contrib.login_methods.rpx_account import use_janrain\nuse_janrain(auth,filename='private/janrain.key')\n\n#########################################################################\n## Define your tables below (or better in another model file) for example\n##\n## >>> db.define_table('mytable',Field('myfield','string'))\n##\n## Fields can be 'string','text','password','integer','double','boolean'\n##       'date','time','datetime','blob','upload', 'reference TABLENAME'\n## There is an implicit 'id integer autoincrement' field\n## Consult manual for more options, validators, etc.\n##\n## More API examples for controllers:\n##\n## >>> db.mytable.insert(myfield='value')\n## >>> rows=db(db.mytable.myfield=='value').select(db.mytable.ALL)\n## >>> for row in rows: print row.id, row.myfield\n#########################################################################\n\n\n# Signature, register datatime of the data who was create\nsignature = db.Table(db, \n\t\t\t\t\t 'signature',\n\t\t\t\t\t Field('created_on', 'datetime', default=request.now),\n\t\t\t\t\t Field('created_by', db.auth_user, default=auth.user_id),\t\t\t\n\t\t\t\t\t Field('updated_on', 'datetime', default=request.now),\n\t\t\t\t\t Field('updated_by', db.auth_user, default=auth.user_id) )\n\n# Briefing media table\ndb.define_table('media', \n\t\t\t\tField('name', 'string'),\n\t\t\t\tField('description', 'text'),\n\t\t\t\tField('visibility', 'boolean'),\n\t\t\t\tField('file', 'upload'),\n\t\t\t\tsignature)\n\t\t\t\t\n# Briefing client table\ndb.define_table('client', \n                Field('name', 'string', requires=[IS_NOT_EMPTY()]),\n                Field('description', 'text', requires=[IS_NOT_EMPTY()]),\n                Field('visibility', 'boolean'),\n                Field('user_id', db.auth_user, default= auth.user_id),\n                Field('avatar', 'upload', db.media), \n                signature)\n\n# Briefing project table\ndb.define_table('project', \n\t\t\t\tField('name', 'string'),\n\t\t\t\tField('description', 'text'),\n\t\t\t\tField('terminated', 'boolean'),\n\t\t\t\tField('client_id', db.client, widget=SQLFORM.widgets.options.widget(db.client.name, db.client.id)),\n\t\t\t\tField('user_id', db.auth_user, default= auth.user_id),\n\t\t\t\tsignature)\n\t\t\t\t\t\t\t\t\n# Briefing sub project table\ndb.define_table('subproject', \n\t\t\t\tField('name', 'string'),\n\t\t\t\tField('description', 'text'),\n\t\t\t\tField('visibility', 'boolean'),\n\t\t\t\tField('project_id', db.project),\n\t\t\t\tField('user_id', db.auth_user, default= auth.user_id),\n\t\t\t\tsignature)\n\n# Briefing question table\ndb.define_table('question', \n\t\t\t\tField('name', 'string'),\n\t\t\t\tField('description', 'text'),\n\t\t\t\tField('visibility', 'boolean'),\n\t\t\t\tField('project_id', db.project),\n\t\t\t\tField('subproject_id', db.project),\n\t\t\t\tField('user_id', db.auth_user, default= auth.user_id),\n\t\t\t\tsignature)\n\n# Briefing answer table\ndb.define_table('answer', \n\t\t\t\tField('name', 'string'),\n\t\t\t\tField('description', 'text'),\n\t\t\t\tField('visibility', 'boolean'),\n\t\t\t\tField('project_id', db.project),\n\t\t\t\tField('subproject_id', db.subproject),\n\t\t\t\tField('user_id', db.auth_user, default= auth.user_id),\n\t\t\t\tField('file', db.media),\n\t\t\t\tsignature)\n"
p7
sS'snapshot'
p8
(dp9
S'exception'
p10
(dp11
S'__getslice__'
p12
S"<method-wrapper '__getslice__' of exceptions.SyntaxError object>"
p13
sS'text'
p14
S'None'
p15
sS'__str__'
p16
S"<method-wrapper '__str__' of exceptions.SyntaxError object>"
p17
sS'__reduce__'
p18
S'<built-in method __reduce__ of exceptions.SyntaxError object>'
p19
sS'__dict__'
p20
S'{}'
p21
sS'__sizeof__'
p22
S'<built-in method __sizeof__ of exceptions.SyntaxError object>'
p23
sS'__init__'
p24
S"<method-wrapper '__init__' of exceptions.SyntaxError object>"
p25
sS'__setattr__'
p26
S"<method-wrapper '__setattr__' of exceptions.SyntaxError object>"
p27
sS'__reduce_ex__'
p28
S'<built-in method __reduce_ex__ of exceptions.SyntaxError object>'
p29
sS'__new__'
p30
S'<built-in method __new__ of type object>'
p31
sS'__format__'
p32
S'<built-in method __format__ of exceptions.SyntaxError object>'
p33
sS'__class__'
p34
S"<type 'exceptions.SyntaxError'>"
p35
sS'filename'
p36
S'None'
p37
sS'lineno'
p38
S'None'
p39
sS'msg'
p40
S"'widget cannot determine options of client.name'"
p41
sS'__doc__'
p42
S"'Invalid syntax.'"
p43
sS'__getitem__'
p44
S"<method-wrapper '__getitem__' of exceptions.SyntaxError object>"
p45
sS'__setstate__'
p46
S'<built-in method __setstate__ of exceptions.SyntaxError object>'
p47
sS'__getattribute__'
p48
S"<method-wrapper '__getattribute__' of exceptions.SyntaxError object>"
p49
sS'print_file_and_line'
p50
S'None'
p51
sS'args'
p52
S"('widget cannot determine options of client.name',)"
p53
sS'__subclasshook__'
p54
S'<built-in method __subclasshook__ of type object>'
p55
sS'offset'
p56
S'None'
p57
sS'__unicode__'
p58
S'<built-in method __unicode__ of exceptions.SyntaxError object>'
p59
sS'__delattr__'
p60
S"<method-wrapper '__delattr__' of exceptions.SyntaxError object>"
p61
sS'__repr__'
p62
S"<method-wrapper '__repr__' of exceptions.SyntaxError object>"
p63
sS'__hash__'
p64
S"<method-wrapper '__hash__' of exceptions.SyntaxError object>"
p65
ssS'evalue'
p66
S'widget cannot determine options of client.name'
p67
sS'request'
p68
ccopy_reg
_reconstructor
p69
(cgluon.html
BEAUTIFY
p70
c__builtin__
object
p71
NtRp72
(dp73
S'attributes'
p74
(dp75
sS'components'
p76
(lp77
g69
(cgluon.html
TABLE
p78
g71
NtRp79
(dp80
g74
(dp81
S'level'
p82
I5
ssS'parent'
p83
Nsg76
(lp84
g69
(cgluon.html
TR
p85
g71
NtRp86
(dp87
g74
(dp88
sg83
g79
sg76
(lp89
g69
(cgluon.html
TD
p90
g71
NtRp91
(dp92
g74
(dp93
S'_style'
p94
S'font-weight:bold;vertical-align:top'
p95
ssg83
g86
sg76
(lp96
S'ajax'
p97
asbag69
(g90
g71
NtRp98
(dp99
g74
(dp100
S'_valign'
p101
S'top'
p102
ssg83
g86
sg76
(lp103
S':'
asbag69
(g90
g71
NtRp104
(dp105
g74
(dp106
sg83
g86
sg76
(lp107
g69
(g70
g71
NtRp108
(dp109
g74
(dp110
g82
I5
ssg83
g104
sg76
(lp111
S'False'
p112
asbasbasbag69
(g85
g71
NtRp113
(dp114
g74
(dp115
sg83
g79
sg76
(lp116
g69
(g90
g71
NtRp117
(dp118
g74
(dp119
g94
g95
ssg83
g113
sg76
(lp120
S'application'
p121
asbag69
(g90
g71
NtRp122
(dp123
g74
(dp124
g101
g102
ssg83
g113
sg76
(lp125
S':'
asbag69
(g90
g71
NtRp126
(dp127
g74
(dp128
sg83
g113
sg76
(lp129
g69
(g70
g71
NtRp130
(dp131
g74
(dp132
g82
I5
ssg83
g126
sg76
(lp133
S'makebrand'
p134
asbasbasbag69
(g85
g71
NtRp135
(dp136
g74
(dp137
sg83
g79
sg76
(lp138
g69
(g90
g71
NtRp139
(dp140
g74
(dp141
g94
g95
ssg83
g135
sg76
(lp142
g52
asbag69
(g90
g71
NtRp143
(dp144
g74
(dp145
g101
g102
ssg83
g135
sg76
(lp146
S':'
asbag69
(g90
g71
NtRp147
(dp148
g74
(dp149
sg83
g135
sg76
(lp150
g69
(g70
g71
NtRp151
(dp152
g74
(dp153
g82
I5
ssg83
g147
sg76
(lp154
g69
(g78
g71
NtRp155
(dp156
g74
(dp157
g82
I4
ssg83
Nsg76
(lp158
sbasbasbasbag69
(g85
g71
NtRp159
(dp160
g74
(dp161
sg83
g79
sg76
(lp162
g69
(g90
g71
NtRp163
(dp164
g74
(dp165
g94
g95
ssg83
g159
sg76
(lp166
S'body'
p167
asbag69
(g90
g71
NtRp168
(dp169
g74
(dp170
g101
g102
ssg83
g159
sg76
(lp171
S':'
asbag69
(g90
g71
NtRp172
(dp173
g74
(dp174
sg83
g159
sg76
(lp175
g69
(g70
g71
NtRp176
(dp177
g74
(dp178
g82
I5
ssg83
g172
sg76
(lp179
S'<cStringIO.StringO object at 0xa0b7860>'
p180
asbasbasbag69
(g85
g71
NtRp181
(dp182
g74
(dp183
sg83
g79
sg76
(lp184
g69
(g90
g71
NtRp185
(dp186
g74
(dp187
g94
g95
ssg83
g181
sg76
(lp188
S'client'
p189
asbag69
(g90
g71
NtRp190
(dp191
g74
(dp192
g101
g102
ssg83
g181
sg76
(lp193
S':'
asbag69
(g90
g71
NtRp194
(dp195
g74
(dp196
sg83
g181
sg76
(lp197
g69
(g70
g71
NtRp198
(dp199
g74
(dp200
g82
I5
ssg83
g194
sg76
(lp201
S'127.0.0.1'
p202
asbasbasbag69
(g85
g71
NtRp203
(dp204
g74
(dp205
sg83
g79
sg76
(lp206
g69
(g90
g71
NtRp207
(dp208
g74
(dp209
g94
g95
ssg83
g203
sg76
(lp210
S'controller'
p211
asbag69
(g90
g71
NtRp212
(dp213
g74
(dp214
g101
g102
ssg83
g203
sg76
(lp215
S':'
asbag69
(g90
g71
NtRp216
(dp217
g74
(dp218
sg83
g203
sg76
(lp219
g69
(g70
g71
NtRp220
(dp221
g74
(dp222
g82
I5
ssg83
g216
sg76
(lp223
S'project'
p224
asbasbasbag69
(g85
g71
NtRp225
(dp226
g74
(dp227
sg83
g79
sg76
(lp228
g69
(g90
g71
NtRp229
(dp230
g74
(dp231
g94
g95
ssg83
g225
sg76
(lp232
S'cookies'
p233
asbag69
(g90
g71
NtRp234
(dp235
g74
(dp236
g101
g102
ssg83
g225
sg76
(lp237
S':'
asbag69
(g90
g71
NtRp238
(dp239
g74
(dp240
sg83
g225
sg76
(lp241
g69
(g70
g71
NtRp242
(dp243
g74
(dp244
g82
I5
ssg83
g238
sg76
(lp245
g69
(g78
g71
NtRp246
(dp247
g74
(dp248
g82
I4
ssg83
Nsg76
(lp249
g69
(g85
g71
NtRp250
(dp251
g74
(dp252
sg83
g246
sg76
(lp253
g69
(g90
g71
NtRp254
(dp255
g74
(dp256
g94
g95
ssg83
g250
sg76
(lp257
S'session_id_admin'
p258
asbag69
(g90
g71
NtRp259
(dp260
g74
(dp261
g101
g102
ssg83
g250
sg76
(lp262
S':'
asbag69
(g90
g71
NtRp263
(dp264
g74
(dp265
sg83
g250
sg76
(lp266
g69
(g70
g71
NtRp267
(dp268
g74
(dp269
g82
I4
ssg83
g263
sg76
(lp270
g69
(g78
g71
NtRp271
(dp272
g74
(dp273
g82
I3
ssg83
Nsg76
(lp274
g69
(g85
g71
NtRp275
(dp276
g74
(dp277
sg83
g271
sg76
(lp278
g69
(g90
g71
NtRp279
(dp280
g74
(dp281
g94
g95
ssg83
g275
sg76
(lp282
S'comment'
p283
asbag69
(g90
g71
NtRp284
(dp285
g74
(dp286
g101
g102
ssg83
g275
sg76
(lp287
S':'
asbag69
(g90
g71
NtRp288
(dp289
g74
(dp290
sg83
g275
sg76
(lp291
g69
(g70
g71
NtRp292
(dp293
g74
(dp294
g82
I3
ssg83
g288
sg76
(lp295
S''
asbasbasbag69
(g85
g71
NtRp296
(dp297
g74
(dp298
sg83
g271
sg76
(lp299
g69
(g90
g71
NtRp300
(dp301
g74
(dp302
g94
g95
ssg83
g296
sg76
(lp303
S'domain'
p304
asbag69
(g90
g71
NtRp305
(dp306
g74
(dp307
g101
g102
ssg83
g296
sg76
(lp308
S':'
asbag69
(g90
g71
NtRp309
(dp310
g74
(dp311
sg83
g296
sg76
(lp312
g69
(g70
g71
NtRp313
(dp314
g74
(dp315
g82
I3
ssg83
g309
sg76
(lp316
S''
asbasbasbag69
(g85
g71
NtRp317
(dp318
g74
(dp319
sg83
g271
sg76
(lp320
g69
(g90
g71
NtRp321
(dp322
g74
(dp323
g94
g95
ssg83
g317
sg76
(lp324
S'expires'
p325
asbag69
(g90
g71
NtRp326
(dp327
g74
(dp328
g101
g102
ssg83
g317
sg76
(lp329
S':'
asbag69
(g90
g71
NtRp330
(dp331
g74
(dp332
sg83
g317
sg76
(lp333
g69
(g70
g71
NtRp334
(dp335
g74
(dp336
g82
I3
ssg83
g330
sg76
(lp337
S''
asbasbasbag69
(g85
g71
NtRp338
(dp339
g74
(dp340
sg83
g271
sg76
(lp341
g69
(g90
g71
NtRp342
(dp343
g74
(dp344
g94
g95
ssg83
g338
sg76
(lp345
S'httponly'
p346
asbag69
(g90
g71
NtRp347
(dp348
g74
(dp349
g101
g102
ssg83
g338
sg76
(lp350
S':'
asbag69
(g90
g71
NtRp351
(dp352
g74
(dp353
sg83
g338
sg76
(lp354
g69
(g70
g71
NtRp355
(dp356
g74
(dp357
g82
I3
ssg83
g351
sg76
(lp358
S''
asbasbasbag69
(g85
g71
NtRp359
(dp360
g74
(dp361
sg83
g271
sg76
(lp362
g69
(g90
g71
NtRp363
(dp364
g74
(dp365
g94
g95
ssg83
g359
sg76
(lp366
S'max-age'
p367
asbag69
(g90
g71
NtRp368
(dp369
g74
(dp370
g101
g102
ssg83
g359
sg76
(lp371
S':'
asbag69
(g90
g71
NtRp372
(dp373
g74
(dp374
sg83
g359
sg76
(lp375
g69
(g70
g71
NtRp376
(dp377
g74
(dp378
g82
I3
ssg83
g372
sg76
(lp379
S''
asbasbasbag69
(g85
g71
NtRp380
(dp381
g74
(dp382
sg83
g271
sg76
(lp383
g69
(g90
g71
NtRp384
(dp385
g74
(dp386
g94
g95
ssg83
g380
sg76
(lp387
S'path'
p388
asbag69
(g90
g71
NtRp389
(dp390
g74
(dp391
g101
g102
ssg83
g380
sg76
(lp392
S':'
asbag69
(g90
g71
NtRp393
(dp394
g74
(dp395
sg83
g380
sg76
(lp396
g69
(g70
g71
NtRp397
(dp398
g74
(dp399
g82
I3
ssg83
g393
sg76
(lp400
S''
asbasbasbag69
(g85
g71
NtRp401
(dp402
g74
(dp403
sg83
g271
sg76
(lp404
g69
(g90
g71
NtRp405
(dp406
g74
(dp407
g94
g95
ssg83
g401
sg76
(lp408
S'secure'
p409
asbag69
(g90
g71
NtRp410
(dp411
g74
(dp412
g101
g102
ssg83
g401
sg76
(lp413
S':'
asbag69
(g90
g71
NtRp414
(dp415
g74
(dp416
sg83
g401
sg76
(lp417
g69
(g70
g71
NtRp418
(dp419
g74
(dp420
g82
I3
ssg83
g414
sg76
(lp421
S''
asbasbasbag69
(g85
g71
NtRp422
(dp423
g74
(dp424
sg83
g271
sg76
(lp425
g69
(g90
g71
NtRp426
(dp427
g74
(dp428
g94
g95
ssg83
g422
sg76
(lp429
S'version'
p430
asbag69
(g90
g71
NtRp431
(dp432
g74
(dp433
g101
g102
ssg83
g422
sg76
(lp434
S':'
asbag69
(g90
g71
NtRp435
(dp436
g74
(dp437
sg83
g422
sg76
(lp438
g69
(g70
g71
NtRp439
(dp440
g74
(dp441
g82
I3
ssg83
g435
sg76
(lp442
S''
asbasbasbasbasbasbasbag69
(g85
g71
NtRp443
(dp444
g74
(dp445
sg83
g246
sg76
(lp446
g69
(g90
g71
NtRp447
(dp448
g74
(dp449
g94
g95
ssg83
g443
sg76
(lp450
S'session_id_makebrand'
p451
asbag69
(g90
g71
NtRp452
(dp453
g74
(dp454
g101
g102
ssg83
g443
sg76
(lp455
S':'
asbag69
(g90
g71
NtRp456
(dp457
g74
(dp458
sg83
g443
sg76
(lp459
g69
(g70
g71
NtRp460
(dp461
g74
(dp462
g82
I4
ssg83
g456
sg76
(lp463
g69
(g78
g71
NtRp464
(dp465
g74
(dp466
g82
I3
ssg83
Nsg76
(lp467
g69
(g85
g71
NtRp468
(dp469
g74
(dp470
sg83
g464
sg76
(lp471
g69
(g90
g71
NtRp472
(dp473
g74
(dp474
g94
g95
ssg83
g468
sg76
(lp475
g283
asbag69
(g90
g71
NtRp476
(dp477
g74
(dp478
g101
g102
ssg83
g468
sg76
(lp479
S':'
asbag69
(g90
g71
NtRp480
(dp481
g74
(dp482
sg83
g468
sg76
(lp483
g69
(g70
g71
NtRp484
(dp485
g74
(dp486
g82
I3
ssg83
g480
sg76
(lp487
S''
asbasbasbag69
(g85
g71
NtRp488
(dp489
g74
(dp490
sg83
g464
sg76
(lp491
g69
(g90
g71
NtRp492
(dp493
g74
(dp494
g94
g95
ssg83
g488
sg76
(lp495
g304
asbag69
(g90
g71
NtRp496
(dp497
g74
(dp498
g101
g102
ssg83
g488
sg76
(lp499
S':'
asbag69
(g90
g71
NtRp500
(dp501
g74
(dp502
sg83
g488
sg76
(lp503
g69
(g70
g71
NtRp504
(dp505
g74
(dp506
g82
I3
ssg83
g500
sg76
(lp507
S''
asbasbasbag69
(g85
g71
NtRp508
(dp509
g74
(dp510
sg83
g464
sg76
(lp511
g69
(g90
g71
NtRp512
(dp513
g74
(dp514
g94
g95
ssg83
g508
sg76
(lp515
g325
asbag69
(g90
g71
NtRp516
(dp517
g74
(dp518
g101
g102
ssg83
g508
sg76
(lp519
S':'
asbag69
(g90
g71
NtRp520
(dp521
g74
(dp522
sg83
g508
sg76
(lp523
g69
(g70
g71
NtRp524
(dp525
g74
(dp526
g82
I3
ssg83
g520
sg76
(lp527
S''
asbasbasbag69
(g85
g71
NtRp528
(dp529
g74
(dp530
sg83
g464
sg76
(lp531
g69
(g90
g71
NtRp532
(dp533
g74
(dp534
g94
g95
ssg83
g528
sg76
(lp535
g346
asbag69
(g90
g71
NtRp536
(dp537
g74
(dp538
g101
g102
ssg83
g528
sg76
(lp539
S':'
asbag69
(g90
g71
NtRp540
(dp541
g74
(dp542
sg83
g528
sg76
(lp543
g69
(g70
g71
NtRp544
(dp545
g74
(dp546
g82
I3
ssg83
g540
sg76
(lp547
S''
asbasbasbag69
(g85
g71
NtRp548
(dp549
g74
(dp550
sg83
g464
sg76
(lp551
g69
(g90
g71
NtRp552
(dp553
g74
(dp554
g94
g95
ssg83
g548
sg76
(lp555
g367
asbag69
(g90
g71
NtRp556
(dp557
g74
(dp558
g101
g102
ssg83
g548
sg76
(lp559
S':'
asbag69
(g90
g71
NtRp560
(dp561
g74
(dp562
sg83
g548
sg76
(lp563
g69
(g70
g71
NtRp564
(dp565
g74
(dp566
g82
I3
ssg83
g560
sg76
(lp567
S''
asbasbasbag69
(g85
g71
NtRp568
(dp569
g74
(dp570
sg83
g464
sg76
(lp571
g69
(g90
g71
NtRp572
(dp573
g74
(dp574
g94
g95
ssg83
g568
sg76
(lp575
g388
asbag69
(g90
g71
NtRp576
(dp577
g74
(dp578
g101
g102
ssg83
g568
sg76
(lp579
S':'
asbag69
(g90
g71
NtRp580
(dp581
g74
(dp582
sg83
g568
sg76
(lp583
g69
(g70
g71
NtRp584
(dp585
g74
(dp586
g82
I3
ssg83
g580
sg76
(lp587
S''
asbasbasbag69
(g85
g71
NtRp588
(dp589
g74
(dp590
sg83
g464
sg76
(lp591
g69
(g90
g71
NtRp592
(dp593
g74
(dp594
g94
g95
ssg83
g588
sg76
(lp595
g409
asbag69
(g90
g71
NtRp596
(dp597
g74
(dp598
g101
g102
ssg83
g588
sg76
(lp599
S':'
asbag69
(g90
g71
NtRp600
(dp601
g74
(dp602
sg83
g588
sg76
(lp603
g69
(g70
g71
NtRp604
(dp605
g74
(dp606
g82
I3
ssg83
g600
sg76
(lp607
S''
asbasbasbag69
(g85
g71
NtRp608
(dp609
g74
(dp610
sg83
g464
sg76
(lp611
g69
(g90
g71
NtRp612
(dp613
g74
(dp614
g94
g95
ssg83
g608
sg76
(lp615
g430
asbag69
(g90
g71
NtRp616
(dp617
g74
(dp618
g101
g102
ssg83
g608
sg76
(lp619
S':'
asbag69
(g90
g71
NtRp620
(dp621
g74
(dp622
sg83
g608
sg76
(lp623
g69
(g70
g71
NtRp624
(dp625
g74
(dp626
g82
I3
ssg83
g620
sg76
(lp627
S''
asbasbasbasbasbasbasbasbasbasbasbag69
(g85
g71
NtRp628
(dp629
g74
(dp630
sg83
g79
sg76
(lp631
g69
(g90
g71
NtRp632
(dp633
g74
(dp634
g94
g95
ssg83
g628
sg76
(lp635
S'env'
p636
asbag69
(g90
g71
NtRp637
(dp638
g74
(dp639
g101
g102
ssg83
g628
sg76
(lp640
S':'
asbag69
(g90
g71
NtRp641
(dp642
g74
(dp643
sg83
g628
sg76
(lp644
g69
(g70
g71
NtRp645
(dp646
g74
(dp647
g82
I5
ssg83
g641
sg76
(lp648
g69
(g78
g71
NtRp649
(dp650
g74
(dp651
g82
I4
ssg83
Nsg76
(lp652
g69
(g85
g71
NtRp653
(dp654
g74
(dp655
sg83
g649
sg76
(lp656
g69
(g90
g71
NtRp657
(dp658
g74
(dp659
g94
g95
ssg83
g653
sg76
(lp660
S'app_folders'
p661
asbag69
(g90
g71
NtRp662
(dp663
g74
(dp664
g101
g102
ssg83
g653
sg76
(lp665
S':'
asbag69
(g90
g71
NtRp666
(dp667
g74
(dp668
sg83
g653
sg76
(lp669
g69
(g70
g71
NtRp670
(dp671
g74
(dp672
g82
I4
ssg83
g666
sg76
(lp673
S"set(['/home/kaique/Projects/WebApps/web2py/applications/makebrand/', '/home/kaique/Projects/WebApps/web2py/applications/admin/'])"
p674
asbasbasbag69
(g85
g71
NtRp675
(dp676
g74
(dp677
sg83
g649
sg76
(lp678
g69
(g90
g71
NtRp679
(dp680
g74
(dp681
g94
g95
ssg83
g675
sg76
(lp682
S'applications_parent'
p683
asbag69
(g90
g71
NtRp684
(dp685
g74
(dp686
g101
g102
ssg83
g675
sg76
(lp687
S':'
asbag69
(g90
g71
NtRp688
(dp689
g74
(dp690
sg83
g675
sg76
(lp691
g69
(g70
g71
NtRp692
(dp693
g74
(dp694
g82
I4
ssg83
g688
sg76
(lp695
S'/home/kaique/Projects/WebApps/web2py'
p696
asbasbasbag69
(g85
g71
NtRp697
(dp698
g74
(dp699
sg83
g649
sg76
(lp700
g69
(g90
g71
NtRp701
(dp702
g74
(dp703
g94
g95
ssg83
g697
sg76
(lp704
S'cmd_args'
p705
asbag69
(g90
g71
NtRp706
(dp707
g74
(dp708
g101
g102
ssg83
g697
sg76
(lp709
S':'
asbag69
(g90
g71
NtRp710
(dp711
g74
(dp712
sg83
g697
sg76
(lp713
g69
(g70
g71
NtRp714
(dp715
g74
(dp716
g82
I4
ssg83
g710
sg76
(lp717
g69
(g78
g71
NtRp718
(dp719
g74
(dp720
g82
I3
ssg83
Nsg76
(lp721
sbasbasbasbag69
(g85
g71
NtRp722
(dp723
g74
(dp724
sg83
g649
sg76
(lp725
g69
(g90
g71
NtRp726
(dp727
g74
(dp728
g94
g95
ssg83
g722
sg76
(lp729
S'cmd_options'
p730
asbag69
(g90
g71
NtRp731
(dp732
g74
(dp733
g101
g102
ssg83
g722
sg76
(lp734
S':'
asbag69
(g90
g71
NtRp735
(dp736
g74
(dp737
sg83
g722
sg76
(lp738
g69
(g70
g71
NtRp739
(dp740
g74
(dp741
g82
I4
ssg83
g735
sg76
(lp742
S"<Values at 0x9d8d7ec: {'verbose': False, 'ip': '127.0.0.1', 'shutdown_timeout': 5, 'taskbar': False, 'nocron': False, 'pid_filename': 'httpserver.pid', 'maxthreads': None, 'softcron': False, 'server_name': 'ubuntu', 'bpython': False, 'nogui': False, 'port': 8000, 'extcron': False, 'debuglevel': 30, 'test': None, 'folder': '/home/kaique/Projects/WebApps/web2py', 'config': '', 'import_models': False, 'winservice': '', 'shell': None, 'run': '', 'log_filename': 'httpserver.log', 'args': [''], 'socket_timeout': 1, 'ssl_ca_certificate': None, 'scheduler': None, 'profiler_filename': None, 'ssl_private_key': '', 'password': 'dev', 'request_queue_size': 5, 'ssl_certificate': '', 'cronjob': False, 'numthreads': None, 'quiet': False, 'interfaces': None, 'minthreads': None, 'timeout': 10, 'plain': False, 'nobanner': False}>"
p743
asbasbasbag69
(g85
g71
NtRp744
(dp745
g74
(dp746
sg83
g649
sg76
(lp747
g69
(g90
g71
NtRp748
(dp749
g74
(dp750
g94
g95
ssg83
g744
sg76
(lp751
S'db_sessions'
p752
asbag69
(g90
g71
NtRp753
(dp754
g74
(dp755
g101
g102
ssg83
g744
sg76
(lp756
S':'
asbag69
(g90
g71
NtRp757
(dp758
g74
(dp759
sg83
g744
sg76
(lp760
g69
(g70
g71
NtRp761
(dp762
g74
(dp763
g82
I4
ssg83
g757
sg76
(lp764
S'set([])'
p765
asbasbasbag69
(g85
g71
NtRp766
(dp767
g74
(dp768
sg83
g649
sg76
(lp769
g69
(g90
g71
NtRp770
(dp771
g74
(dp772
g94
g95
ssg83
g766
sg76
(lp773
S'debugging'
p774
asbag69
(g90
g71
NtRp775
(dp776
g74
(dp777
g101
g102
ssg83
g766
sg76
(lp778
S':'
asbag69
(g90
g71
NtRp779
(dp780
g74
(dp781
sg83
g766
sg76
(lp782
g69
(g70
g71
NtRp783
(dp784
g74
(dp785
g82
I4
ssg83
g779
sg76
(lp786
g112
asbasbasbag69
(g85
g71
NtRp787
(dp788
g74
(dp789
sg83
g649
sg76
(lp790
g69
(g90
g71
NtRp791
(dp792
g74
(dp793
g94
g95
ssg83
g787
sg76
(lp794
S'gluon_parent'
p795
asbag69
(g90
g71
NtRp796
(dp797
g74
(dp798
g101
g102
ssg83
g787
sg76
(lp799
S':'
asbag69
(g90
g71
NtRp800
(dp801
g74
(dp802
sg83
g787
sg76
(lp803
g69
(g70
g71
NtRp804
(dp805
g74
(dp806
g82
I4
ssg83
g800
sg76
(lp807
S'/home/kaique/Projects/WebApps/web2py'
p808
asbasbasbag69
(g85
g71
NtRp809
(dp810
g74
(dp811
sg83
g649
sg76
(lp812
g69
(g90
g71
NtRp813
(dp814
g74
(dp815
g94
g95
ssg83
g809
sg76
(lp816
S'http_accept'
p817
asbag69
(g90
g71
NtRp818
(dp819
g74
(dp820
g101
g102
ssg83
g809
sg76
(lp821
S':'
asbag69
(g90
g71
NtRp822
(dp823
g74
(dp824
sg83
g809
sg76
(lp825
g69
(g70
g71
NtRp826
(dp827
g74
(dp828
g82
I4
ssg83
g822
sg76
(lp829
S'text/html,application/xhtml+xml,application/xml;q=0.9,*/*;q=0.8'
p830
asbasbasbag69
(g85
g71
NtRp831
(dp832
g74
(dp833
sg83
g649
sg76
(lp834
g69
(g90
g71
NtRp835
(dp836
g74
(dp837
g94
g95
ssg83
g831
sg76
(lp838
S'http_accept_charset'
p839
asbag69
(g90
g71
NtRp840
(dp841
g74
(dp842
g101
g102
ssg83
g831
sg76
(lp843
S':'
asbag69
(g90
g71
NtRp844
(dp845
g74
(dp846
sg83
g831
sg76
(lp847
g69
(g70
g71
NtRp848
(dp849
g74
(dp850
g82
I4
ssg83
g844
sg76
(lp851
S'UTF-8,*;q=0.5'
p852
asbasbasbag69
(g85
g71
NtRp853
(dp854
g74
(dp855
sg83
g649
sg76
(lp856
g69
(g90
g71
NtRp857
(dp858
g74
(dp859
g94
g95
ssg83
g853
sg76
(lp860
S'http_accept_encoding'
p861
asbag69
(g90
g71
NtRp862
(dp863
g74
(dp864
g101
g102
ssg83
g853
sg76
(lp865
S':'
asbag69
(g90
g71
NtRp866
(dp867
g74
(dp868
sg83
g853
sg76
(lp869
g69
(g70
g71
NtRp870
(dp871
g74
(dp872
g82
I4
ssg83
g866
sg76
(lp873
S'gzip,deflate,sdch'
p874
asbasbasbag69
(g85
g71
NtRp875
(dp876
g74
(dp877
sg83
g649
sg76
(lp878
g69
(g90
g71
NtRp879
(dp880
g74
(dp881
g94
g95
ssg83
g875
sg76
(lp882
S'http_accept_language'
p883
asbag69
(g90
g71
NtRp884
(dp885
g74
(dp886
g101
g102
ssg83
g875
sg76
(lp887
S':'
asbag69
(g90
g71
NtRp888
(dp889
g74
(dp890
sg83
g875
sg76
(lp891
g69
(g70
g71
NtRp892
(dp893
g74
(dp894
g82
I4
ssg83
g888
sg76
(lp895
S'pt-BR,pt;q=0.8,en-US;q=0.6,en;q=0.4'
p896
asbasbasbag69
(g85
g71
NtRp897
(dp898
g74
(dp899
sg83
g649
sg76
(lp900
g69
(g90
g71
NtRp901
(dp902
g74
(dp903
g94
g95
ssg83
g897
sg76
(lp904
S'http_cache_control'
p905
asbag69
(g90
g71
NtRp906
(dp907
g74
(dp908
g101
g102
ssg83
g897
sg76
(lp909
S':'
asbag69
(g90
g71
NtRp910
(dp911
g74
(dp912
sg83
g897
sg76
(lp913
g69
(g70
g71
NtRp914
(dp915
g74
(dp916
g82
I4
ssg83
g910
sg76
(lp917
S'max-age=0'
p918
asbasbasbag69
(g85
g71
NtRp919
(dp920
g74
(dp921
sg83
g649
sg76
(lp922
g69
(g90
g71
NtRp923
(dp924
g74
(dp925
g94
g95
ssg83
g919
sg76
(lp926
S'http_connection'
p927
asbag69
(g90
g71
NtRp928
(dp929
g74
(dp930
g101
g102
ssg83
g919
sg76
(lp931
S':'
asbag69
(g90
g71
NtRp932
(dp933
g74
(dp934
sg83
g919
sg76
(lp935
g69
(g70
g71
NtRp936
(dp937
g74
(dp938
g82
I4
ssg83
g932
sg76
(lp939
S'keep-alive'
p940
asbasbasbag69
(g85
g71
NtRp941
(dp942
g74
(dp943
sg83
g649
sg76
(lp944
g69
(g90
g71
NtRp945
(dp946
g74
(dp947
g94
g95
ssg83
g941
sg76
(lp948
S'http_cookie'
p949
asbag69
(g90
g71
NtRp950
(dp951
g74
(dp952
g101
g102
ssg83
g941
sg76
(lp953
S':'
asbag69
(g90
g71
NtRp954
(dp955
g74
(dp956
sg83
g941
sg76
(lp957
g69
(g70
g71
NtRp958
(dp959
g74
(dp960
g82
I4
ssg83
g954
sg76
(lp961
S'session_id_makebrand=127.0.0.1-e3ba017f-c4fb-45c9-8d16-b94cbdfde86f; session_id_admin=127.0.0.1-255cffc9-930c-49c1-9c0e-a548597dcd2e'
p962
asbasbasbag69
(g85
g71
NtRp963
(dp964
g74
(dp965
sg83
g649
sg76
(lp966
g69
(g90
g71
NtRp967
(dp968
g74
(dp969
g94
g95
ssg83
g963
sg76
(lp970
S'http_host'
p971
asbag69
(g90
g71
NtRp972
(dp973
g74
(dp974
g101
g102
ssg83
g963
sg76
(lp975
S':'
asbag69
(g90
g71
NtRp976
(dp977
g74
(dp978
sg83
g963
sg76
(lp979
g69
(g70
g71
NtRp980
(dp981
g74
(dp982
g82
I4
ssg83
g976
sg76
(lp983
S'127.0.0.1:8000'
p984
asbasbasbag69
(g85
g71
NtRp985
(dp986
g74
(dp987
sg83
g649
sg76
(lp988
g69
(g90
g71
NtRp989
(dp990
g74
(dp991
g94
g95
ssg83
g985
sg76
(lp992
S'http_referer'
p993
asbag69
(g90
g71
NtRp994
(dp995
g74
(dp996
g101
g102
ssg83
g985
sg76
(lp997
S':'
asbag69
(g90
g71
NtRp998
(dp999
g74
(dp1000
sg83
g985
sg76
(lp1001
g69
(g70
g71
NtRp1002
(dp1003
g74
(dp1004
g82
I4
ssg83
g998
sg76
(lp1005
S'http://127.0.0.1:8000/makebrand/project/index'
p1006
asbasbasbag69
(g85
g71
NtRp1007
(dp1008
g74
(dp1009
sg83
g649
sg76
(lp1010
g69
(g90
g71
NtRp1011
(dp1012
g74
(dp1013
g94
g95
ssg83
g1007
sg76
(lp1014
S'http_user_agent'
p1015
asbag69
(g90
g71
NtRp1016
(dp1017
g74
(dp1018
g101
g102
ssg83
g1007
sg76
(lp1019
S':'
asbag69
(g90
g71
NtRp1020
(dp1021
g74
(dp1022
sg83
g1007
sg76
(lp1023
g69
(g70
g71
NtRp1024
(dp1025
g74
(dp1026
g82
I4
ssg83
g1020
sg76
(lp1027
S'Mozilla/5.0 (X11; Linux i686) AppleWebKit/535.7 (KHTML, like Gecko) Chrome/16.0.912.77 Safari/535.7'
p1028
asbasbasbag69
(g85
g71
NtRp1029
(dp1030
g74
(dp1031
sg83
g649
sg76
(lp1032
g69
(g90
g71
NtRp1033
(dp1034
g74
(dp1035
g94
g95
ssg83
g1029
sg76
(lp1036
S'is_jython'
p1037
asbag69
(g90
g71
NtRp1038
(dp1039
g74
(dp1040
g101
g102
ssg83
g1029
sg76
(lp1041
S':'
asbag69
(g90
g71
NtRp1042
(dp1043
g74
(dp1044
sg83
g1029
sg76
(lp1045
g69
(g70
g71
NtRp1046
(dp1047
g74
(dp1048
g82
I4
ssg83
g1042
sg76
(lp1049
g112
asbasbasbag69
(g85
g71
NtRp1050
(dp1051
g74
(dp1052
sg83
g649
sg76
(lp1053
g69
(g90
g71
NtRp1054
(dp1055
g74
(dp1056
g94
g95
ssg83
g1050
sg76
(lp1057
S'is_pypy'
p1058
asbag69
(g90
g71
NtRp1059
(dp1060
g74
(dp1061
g101
g102
ssg83
g1050
sg76
(lp1062
S':'
asbag69
(g90
g71
NtRp1063
(dp1064
g74
(dp1065
sg83
g1050
sg76
(lp1066
g69
(g70
g71
NtRp1067
(dp1068
g74
(dp1069
g82
I4
ssg83
g1063
sg76
(lp1070
g112
asbasbasbag69
(g85
g71
NtRp1071
(dp1072
g74
(dp1073
sg83
g649
sg76
(lp1074
g69
(g90
g71
NtRp1075
(dp1076
g74
(dp1077
g94
g95
ssg83
g1071
sg76
(lp1078
S'path_info'
p1079
asbag69
(g90
g71
NtRp1080
(dp1081
g74
(dp1082
g101
g102
ssg83
g1071
sg76
(lp1083
S':'
asbag69
(g90
g71
NtRp1084
(dp1085
g74
(dp1086
sg83
g1071
sg76
(lp1087
g69
(g70
g71
NtRp1088
(dp1089
g74
(dp1090
g82
I4
ssg83
g1084
sg76
(lp1091
S'/makebrand/project/new'
p1092
asbasbasbag69
(g85
g71
NtRp1093
(dp1094
g74
(dp1095
sg83
g649
sg76
(lp1096
g69
(g90
g71
NtRp1097
(dp1098
g74
(dp1099
g94
g95
ssg83
g1093
sg76
(lp1100
S'query_string'
p1101
asbag69
(g90
g71
NtRp1102
(dp1103
g74
(dp1104
g101
g102
ssg83
g1093
sg76
(lp1105
S':'
asbag69
(g90
g71
NtRp1106
(dp1107
g74
(dp1108
sg83
g1093
sg76
(lp1109
g69
(g70
g71
NtRp1110
(dp1111
g74
(dp1112
g82
I4
ssg83
g1106
sg76
(lp1113
S''
asbasbasbag69
(g85
g71
NtRp1114
(dp1115
g74
(dp1116
sg83
g649
sg76
(lp1117
g69
(g90
g71
NtRp1118
(dp1119
g74
(dp1120
g94
g95
ssg83
g1114
sg76
(lp1121
S'remote_addr'
p1122
asbag69
(g90
g71
NtRp1123
(dp1124
g74
(dp1125
g101
g102
ssg83
g1114
sg76
(lp1126
S':'
asbag69
(g90
g71
NtRp1127
(dp1128
g74
(dp1129
sg83
g1114
sg76
(lp1130
g69
(g70
g71
NtRp1131
(dp1132
g74
(dp1133
g82
I4
ssg83
g1127
sg76
(lp1134
g202
asbasbasbag69
(g85
g71
NtRp1135
(dp1136
g74
(dp1137
sg83
g649
sg76
(lp1138
g69
(g90
g71
NtRp1139
(dp1140
g74
(dp1141
g94
g95
ssg83
g1135
sg76
(lp1142
S'remote_port'
p1143
asbag69
(g90
g71
NtRp1144
(dp1145
g74
(dp1146
g101
g102
ssg83
g1135
sg76
(lp1147
S':'
asbag69
(g90
g71
NtRp1148
(dp1149
g74
(dp1150
sg83
g1135
sg76
(lp1151
g69
(g70
g71
NtRp1152
(dp1153
g74
(dp1154
g82
I4
ssg83
g1148
sg76
(lp1155
S'54156'
p1156
asbasbasbag69
(g85
g71
NtRp1157
(dp1158
g74
(dp1159
sg83
g649
sg76
(lp1160
g69
(g90
g71
NtRp1161
(dp1162
g74
(dp1163
g94
g95
ssg83
g1157
sg76
(lp1164
S'request_method'
p1165
asbag69
(g90
g71
NtRp1166
(dp1167
g74
(dp1168
g101
g102
ssg83
g1157
sg76
(lp1169
S':'
asbag69
(g90
g71
NtRp1170
(dp1171
g74
(dp1172
sg83
g1157
sg76
(lp1173
g69
(g70
g71
NtRp1174
(dp1175
g74
(dp1176
g82
I4
ssg83
g1170
sg76
(lp1177
S'GET'
p1178
asbasbasbag69
(g85
g71
NtRp1179
(dp1180
g74
(dp1181
sg83
g649
sg76
(lp1182
g69
(g90
g71
NtRp1183
(dp1184
g74
(dp1185
g94
g95
ssg83
g1179
sg76
(lp1186
S'script_name'
p1187
asbag69
(g90
g71
NtRp1188
(dp1189
g74
(dp1190
g101
g102
ssg83
g1179
sg76
(lp1191
S':'
asbag69
(g90
g71
NtRp1192
(dp1193
g74
(dp1194
sg83
g1179
sg76
(lp1195
g69
(g70
g71
NtRp1196
(dp1197
g74
(dp1198
g82
I4
ssg83
g1192
sg76
(lp1199
S''
asbasbasbag69
(g85
g71
NtRp1200
(dp1201
g74
(dp1202
sg83
g649
sg76
(lp1203
g69
(g90
g71
NtRp1204
(dp1205
g74
(dp1206
g94
g95
ssg83
g1200
sg76
(lp1207
S'server_name'
p1208
asbag69
(g90
g71
NtRp1209
(dp1210
g74
(dp1211
g101
g102
ssg83
g1200
sg76
(lp1212
S':'
asbag69
(g90
g71
NtRp1213
(dp1214
g74
(dp1215
sg83
g1200
sg76
(lp1216
g69
(g70
g71
NtRp1217
(dp1218
g74
(dp1219
g82
I4
ssg83
g1213
sg76
(lp1220
S'ubuntu'
p1221
asbasbasbag69
(g85
g71
NtRp1222
(dp1223
g74
(dp1224
sg83
g649
sg76
(lp1225
g69
(g90
g71
NtRp1226
(dp1227
g74
(dp1228
g94
g95
ssg83
g1222
sg76
(lp1229
S'server_port'
p1230
asbag69
(g90
g71
NtRp1231
(dp1232
g74
(dp1233
g101
g102
ssg83
g1222
sg76
(lp1234
S':'
asbag69
(g90
g71
NtRp1235
(dp1236
g74
(dp1237
sg83
g1222
sg76
(lp1238
g69
(g70
g71
NtRp1239
(dp1240
g74
(dp1241
g82
I4
ssg83
g1235
sg76
(lp1242
S'8000'
p1243
asbasbasbag69
(g85
g71
NtRp1244
(dp1245
g74
(dp1246
sg83
g649
sg76
(lp1247
g69
(g90
g71
NtRp1248
(dp1249
g74
(dp1250
g94
g95
ssg83
g1244
sg76
(lp1251
S'server_protocol'
p1252
asbag69
(g90
g71
NtRp1253
(dp1254
g74
(dp1255
g101
g102
ssg83
g1244
sg76
(lp1256
S':'
asbag69
(g90
g71
NtRp1257
(dp1258
g74
(dp1259
sg83
g1244
sg76
(lp1260
g69
(g70
g71
NtRp1261
(dp1262
g74
(dp1263
g82
I4
ssg83
g1257
sg76
(lp1264
S'HTTP/1.1'
p1265
asbasbasbag69
(g85
g71
NtRp1266
(dp1267
g74
(dp1268
sg83
g649
sg76
(lp1269
g69
(g90
g71
NtRp1270
(dp1271
g74
(dp1272
g94
g95
ssg83
g1266
sg76
(lp1273
S'server_software'
p1274
asbag69
(g90
g71
NtRp1275
(dp1276
g74
(dp1277
g101
g102
ssg83
g1266
sg76
(lp1278
S':'
asbag69
(g90
g71
NtRp1279
(dp1280
g74
(dp1281
sg83
g1266
sg76
(lp1282
g69
(g70
g71
NtRp1283
(dp1284
g74
(dp1285
g82
I4
ssg83
g1279
sg76
(lp1286
S'Rocket 1.2.4'
p1287
asbasbasbag69
(g85
g71
NtRp1288
(dp1289
g74
(dp1290
sg83
g649
sg76
(lp1291
g69
(g90
g71
NtRp1292
(dp1293
g74
(dp1294
g94
g95
ssg83
g1288
sg76
(lp1295
S'web2py_crontype'
p1296
asbag69
(g90
g71
NtRp1297
(dp1298
g74
(dp1299
g101
g102
ssg83
g1288
sg76
(lp1300
S':'
asbag69
(g90
g71
NtRp1301
(dp1302
g74
(dp1303
sg83
g1288
sg76
(lp1304
g69
(g70
g71
NtRp1305
(dp1306
g74
(dp1307
g82
I4
ssg83
g1301
sg76
(lp1308
S'hard'
p1309
asbasbasbag69
(g85
g71
NtRp1310
(dp1311
g74
(dp1312
sg83
g649
sg76
(lp1313
g69
(g90
g71
NtRp1314
(dp1315
g74
(dp1316
g94
g95
ssg83
g1310
sg76
(lp1317
S'web2py_path'
p1318
asbag69
(g90
g71
NtRp1319
(dp1320
g74
(dp1321
g101
g102
ssg83
g1310
sg76
(lp1322
S':'
asbag69
(g90
g71
NtRp1323
(dp1324
g74
(dp1325
sg83
g1310
sg76
(lp1326
g69
(g70
g71
NtRp1327
(dp1328
g74
(dp1329
g82
I4
ssg83
g1323
sg76
(lp1330
g696
asbasbasbag69
(g85
g71
NtRp1331
(dp1332
g74
(dp1333
sg83
g649
sg76
(lp1334
g69
(g90
g71
NtRp1335
(dp1336
g74
(dp1337
g94
g95
ssg83
g1331
sg76
(lp1338
S'web2py_version'
p1339
asbag69
(g90
g71
NtRp1340
(dp1341
g74
(dp1342
g101
g102
ssg83
g1331
sg76
(lp1343
S':'
asbag69
(g90
g71
NtRp1344
(dp1345
g74
(dp1346
sg83
g1331
sg76
(lp1347
g69
(g70
g71
NtRp1348
(dp1349
g74
(dp1350
g82
I4
ssg83
g1344
sg76
(lp1351
g69
(g78
g71
NtRp1352
(dp1353
g74
(dp1354
g82
I3
ssg83
Nsg76
(lp1355
g69
(g85
g71
NtRp1356
(dp1357
g74
(dp1358
sg83
g1352
sg76
(lp1359
g69
(g90
g71
NtRp1360
(dp1361
g74
(dp1362
sg83
g1356
sg76
(lp1363
g69
(g70
g71
NtRp1364
(dp1365
g74
(dp1366
g82
I3
ssg83
g1360
sg76
(lp1367
S'1'
asbasbasbag69
(g85
g71
NtRp1368
(dp1369
g74
(dp1370
sg83
g1352
sg76
(lp1371
g69
(g90
g71
NtRp1372
(dp1373
g74
(dp1374
sg83
g1368
sg76
(lp1375
g69
(g70
g71
NtRp1376
(dp1377
g74
(dp1378
g82
I3
ssg83
g1372
sg76
(lp1379
S'99'
p1380
asbasbasbag69
(g85
g71
NtRp1381
(dp1382
g74
(dp1383
sg83
g1352
sg76
(lp1384
g69
(g90
g71
NtRp1385
(dp1386
g74
(dp1387
sg83
g1381
sg76
(lp1388
g69
(g70
g71
NtRp1389
(dp1390
g74
(dp1391
g82
I3
ssg83
g1385
sg76
(lp1392
S'4'
asbasbasbag69
(g85
g71
NtRp1393
(dp1394
g74
(dp1395
sg83
g1352
sg76
(lp1396
g69
(g90
g71
NtRp1397
(dp1398
g74
(dp1399
sg83
g1393
sg76
(lp1400
g69
(g70
g71
NtRp1401
(dp1402
g74
(dp1403
g82
I3
ssg83
g1397
sg76
(lp1404
S'datetime.datetime(2011, 12, 14, 14, 46, 14)'
p1405
asbasbasbag69
(g85
g71
NtRp1406
(dp1407
g74
(dp1408
sg83
g1352
sg76
(lp1409
g69
(g90
g71
NtRp1410
(dp1411
g74
(dp1412
sg83
g1406
sg76
(lp1413
g69
(g70
g71
NtRp1414
(dp1415
g74
(dp1416
g82
I3
ssg83
g1410
sg76
(lp1417
S'stable'
p1418
asbasbasbasbasbasbasbag69
(g85
g71
NtRp1419
(dp1420
g74
(dp1421
sg83
g649
sg76
(lp1422
g69
(g90
g71
NtRp1423
(dp1424
g74
(dp1425
g94
g95
ssg83
g1419
sg76
(lp1426
S'wsgi_errors'
p1427
asbag69
(g90
g71
NtRp1428
(dp1429
g74
(dp1430
g101
g102
ssg83
g1419
sg76
(lp1431
S':'
asbag69
(g90
g71
NtRp1432
(dp1433
g74
(dp1434
sg83
g1419
sg76
(lp1435
g69
(g70
g71
NtRp1436
(dp1437
g74
(dp1438
g82
I4
ssg83
g1432
sg76
(lp1439
S"<open file '<stderr>', mode 'w' at 0xb73ee0d0>"
p1440
asbasbasbag69
(g85
g71
NtRp1441
(dp1442
g74
(dp1443
sg83
g649
sg76
(lp1444
g69
(g90
g71
NtRp1445
(dp1446
g74
(dp1447
g94
g95
ssg83
g1441
sg76
(lp1448
S'wsgi_file_wrapper'
p1449
asbag69
(g90
g71
NtRp1450
(dp1451
g74
(dp1452
g101
g102
ssg83
g1441
sg76
(lp1453
S':'
asbag69
(g90
g71
NtRp1454
(dp1455
g74
(dp1456
sg83
g1441
sg76
(lp1457
g69
(g70
g71
NtRp1458
(dp1459
g74
(dp1460
g82
I4
ssg83
g1454
sg76
(lp1461
S'<class wsgiref.util.FileWrapper at 0x9d3e20c>'
p1462
asbasbasbag69
(g85
g71
NtRp1463
(dp1464
g74
(dp1465
sg83
g649
sg76
(lp1466
g69
(g90
g71
NtRp1467
(dp1468
g74
(dp1469
g94
g95
ssg83
g1463
sg76
(lp1470
S'wsgi_input'
p1471
asbag69
(g90
g71
NtRp1472
(dp1473
g74
(dp1474
g101
g102
ssg83
g1463
sg76
(lp1475
S':'
asbag69
(g90
g71
NtRp1476
(dp1477
g74
(dp1478
sg83
g1463
sg76
(lp1479
g69
(g70
g71
NtRp1480
(dp1481
g74
(dp1482
g82
I4
ssg83
g1476
sg76
(lp1483
S'<socket._fileobject object at 0x9dff5ec>'
p1484
asbasbasbag69
(g85
g71
NtRp1485
(dp1486
g74
(dp1487
sg83
g649
sg76
(lp1488
g69
(g90
g71
NtRp1489
(dp1490
g74
(dp1491
g94
g95
ssg83
g1485
sg76
(lp1492
S'wsgi_multiprocess'
p1493
asbag69
(g90
g71
NtRp1494
(dp1495
g74
(dp1496
g101
g102
ssg83
g1485
sg76
(lp1497
S':'
asbag69
(g90
g71
NtRp1498
(dp1499
g74
(dp1500
sg83
g1485
sg76
(lp1501
g69
(g70
g71
NtRp1502
(dp1503
g74
(dp1504
g82
I4
ssg83
g1498
sg76
(lp1505
g112
asbasbasbag69
(g85
g71
NtRp1506
(dp1507
g74
(dp1508
sg83
g649
sg76
(lp1509
g69
(g90
g71
NtRp1510
(dp1511
g74
(dp1512
g94
g95
ssg83
g1506
sg76
(lp1513
S'wsgi_multithread'
p1514
asbag69
(g90
g71
NtRp1515
(dp1516
g74
(dp1517
g101
g102
ssg83
g1506
sg76
(lp1518
S':'
asbag69
(g90
g71
NtRp1519
(dp1520
g74
(dp1521
sg83
g1506
sg76
(lp1522
g69
(g70
g71
NtRp1523
(dp1524
g74
(dp1525
g82
I4
ssg83
g1519
sg76
(lp1526
S'True'
p1527
asbasbasbag69
(g85
g71
NtRp1528
(dp1529
g74
(dp1530
sg83
g649
sg76
(lp1531
g69
(g90
g71
NtRp1532
(dp1533
g74
(dp1534
g94
g95
ssg83
g1528
sg76
(lp1535
S'wsgi_run_once'
p1536
asbag69
(g90
g71
NtRp1537
(dp1538
g74
(dp1539
g101
g102
ssg83
g1528
sg76
(lp1540
S':'
asbag69
(g90
g71
NtRp1541
(dp1542
g74
(dp1543
sg83
g1528
sg76
(lp1544
g69
(g70
g71
NtRp1545
(dp1546
g74
(dp1547
g82
I4
ssg83
g1541
sg76
(lp1548
g112
asbasbasbag69
(g85
g71
NtRp1549
(dp1550
g74
(dp1551
sg83
g649
sg76
(lp1552
g69
(g90
g71
NtRp1553
(dp1554
g74
(dp1555
g94
g95
ssg83
g1549
sg76
(lp1556
S'wsgi_url_scheme'
p1557
asbag69
(g90
g71
NtRp1558
(dp1559
g74
(dp1560
g101
g102
ssg83
g1549
sg76
(lp1561
S':'
asbag69
(g90
g71
NtRp1562
(dp1563
g74
(dp1564
sg83
g1549
sg76
(lp1565
g69
(g70
g71
NtRp1566
(dp1567
g74
(dp1568
g82
I4
ssg83
g1562
sg76
(lp1569
S'http'
p1570
asbasbasbag69
(g85
g71
NtRp1571
(dp1572
g74
(dp1573
sg83
g649
sg76
(lp1574
g69
(g90
g71
NtRp1575
(dp1576
g74
(dp1577
g94
g95
ssg83
g1571
sg76
(lp1578
S'wsgi_version'
p1579
asbag69
(g90
g71
NtRp1580
(dp1581
g74
(dp1582
g101
g102
ssg83
g1571
sg76
(lp1583
S':'
asbag69
(g90
g71
NtRp1584
(dp1585
g74
(dp1586
sg83
g1571
sg76
(lp1587
g69
(g70
g71
NtRp1588
(dp1589
g74
(dp1590
g82
I4
ssg83
g1584
sg76
(lp1591
g69
(g78
g71
NtRp1592
(dp1593
g74
(dp1594
g82
I3
ssg83
Nsg76
(lp1595
g69
(g85
g71
NtRp1596
(dp1597
g74
(dp1598
sg83
g1592
sg76
(lp1599
g69
(g90
g71
NtRp1600
(dp1601
g74
(dp1602
sg83
g1596
sg76
(lp1603
g69
(g70
g71
NtRp1604
(dp1605
g74
(dp1606
g82
I3
ssg83
g1600
sg76
(lp1607
S'1'
asbasbasbag69
(g85
g71
NtRp1608
(dp1609
g74
(dp1610
sg83
g1592
sg76
(lp1611
g69
(g90
g71
NtRp1612
(dp1613
g74
(dp1614
sg83
g1608
sg76
(lp1615
g69
(g70
g71
NtRp1616
(dp1617
g74
(dp1618
g82
I3
ssg83
g1612
sg76
(lp1619
S'0'
asbasbasbasbasbasbasbasbasbasbasbag69
(g85
g71
NtRp1620
(dp1621
g74
(dp1622
sg83
g79
sg76
(lp1623
g69
(g90
g71
NtRp1624
(dp1625
g74
(dp1626
g94
g95
ssg83
g1620
sg76
(lp1627
S'extension'
p1628
asbag69
(g90
g71
NtRp1629
(dp1630
g74
(dp1631
g101
g102
ssg83
g1620
sg76
(lp1632
S':'
asbag69
(g90
g71
NtRp1633
(dp1634
g74
(dp1635
sg83
g1620
sg76
(lp1636
g69
(g70
g71
NtRp1637
(dp1638
g74
(dp1639
g82
I5
ssg83
g1633
sg76
(lp1640
S'html'
p1641
asbasbasbag69
(g85
g71
NtRp1642
(dp1643
g74
(dp1644
sg83
g79
sg76
(lp1645
g69
(g90
g71
NtRp1646
(dp1647
g74
(dp1648
g94
g95
ssg83
g1642
sg76
(lp1649
S'folder'
p1650
asbag69
(g90
g71
NtRp1651
(dp1652
g74
(dp1653
g101
g102
ssg83
g1642
sg76
(lp1654
S':'
asbag69
(g90
g71
NtRp1655
(dp1656
g74
(dp1657
sg83
g1642
sg76
(lp1658
g69
(g70
g71
NtRp1659
(dp1660
g74
(dp1661
g82
I5
ssg83
g1655
sg76
(lp1662
S'/home/kaique/Projects/WebApps/web2py/applications/makebrand/'
p1663
asbasbasbag69
(g85
g71
NtRp1664
(dp1665
g74
(dp1666
sg83
g79
sg76
(lp1667
g69
(g90
g71
NtRp1668
(dp1669
g74
(dp1670
g94
g95
ssg83
g1664
sg76
(lp1671
S'function'
p1672
asbag69
(g90
g71
NtRp1673
(dp1674
g74
(dp1675
g101
g102
ssg83
g1664
sg76
(lp1676
S':'
asbag69
(g90
g71
NtRp1677
(dp1678
g74
(dp1679
sg83
g1664
sg76
(lp1680
g69
(g70
g71
NtRp1681
(dp1682
g74
(dp1683
g82
I5
ssg83
g1677
sg76
(lp1684
S'new'
p1685
asbasbasbag69
(g85
g71
NtRp1686
(dp1687
g74
(dp1688
sg83
g79
sg76
(lp1689
g69
(g90
g71
NtRp1690
(dp1691
g74
(dp1692
g94
g95
ssg83
g1686
sg76
(lp1693
S'get_vars'
p1694
asbag69
(g90
g71
NtRp1695
(dp1696
g74
(dp1697
g101
g102
ssg83
g1686
sg76
(lp1698
S':'
asbag69
(g90
g71
NtRp1699
(dp1700
g74
(dp1701
sg83
g1686
sg76
(lp1702
g69
(g70
g71
NtRp1703
(dp1704
g74
(dp1705
g82
I5
ssg83
g1699
sg76
(lp1706
g69
(g78
g71
NtRp1707
(dp1708
g74
(dp1709
g82
I4
ssg83
Nsg76
(lp1710
sbasbasbasbag69
(g85
g71
NtRp1711
(dp1712
g74
(dp1713
sg83
g79
sg76
(lp1714
g69
(g90
g71
NtRp1715
(dp1716
g74
(dp1717
g94
g95
ssg83
g1711
sg76
(lp1718
S'global_settings'
p1719
asbag69
(g90
g71
NtRp1720
(dp1721
g74
(dp1722
g101
g102
ssg83
g1711
sg76
(lp1723
S':'
asbag69
(g90
g71
NtRp1724
(dp1725
g74
(dp1726
sg83
g1711
sg76
(lp1727
g69
(g70
g71
NtRp1728
(dp1729
g74
(dp1730
g82
I5
ssg83
g1724
sg76
(lp1731
g69
(g78
g71
NtRp1732
(dp1733
g74
(dp1734
g82
I4
ssg83
Nsg76
(lp1735
g69
(g85
g71
NtRp1736
(dp1737
g74
(dp1738
sg83
g1732
sg76
(lp1739
g69
(g90
g71
NtRp1740
(dp1741
g74
(dp1742
g94
g95
ssg83
g1736
sg76
(lp1743
g661
asbag69
(g90
g71
NtRp1744
(dp1745
g74
(dp1746
g101
g102
ssg83
g1736
sg76
(lp1747
S':'
asbag69
(g90
g71
NtRp1748
(dp1749
g74
(dp1750
sg83
g1736
sg76
(lp1751
g69
(g70
g71
NtRp1752
(dp1753
g74
(dp1754
g82
I4
ssg83
g1748
sg76
(lp1755
S"set(['/home/kaique/Projects/WebApps/web2py/applications/makebrand/', '/home/kaique/Projects/WebApps/web2py/applications/admin/'])"
p1756
asbasbasbag69
(g85
g71
NtRp1757
(dp1758
g74
(dp1759
sg83
g1732
sg76
(lp1760
g69
(g90
g71
NtRp1761
(dp1762
g74
(dp1763
g94
g95
ssg83
g1757
sg76
(lp1764
g683
asbag69
(g90
g71
NtRp1765
(dp1766
g74
(dp1767
g101
g102
ssg83
g1757
sg76
(lp1768
S':'
asbag69
(g90
g71
NtRp1769
(dp1770
g74
(dp1771
sg83
g1757
sg76
(lp1772
g69
(g70
g71
NtRp1773
(dp1774
g74
(dp1775
g82
I4
ssg83
g1769
sg76
(lp1776
g696
asbasbasbag69
(g85
g71
NtRp1777
(dp1778
g74
(dp1779
sg83
g1732
sg76
(lp1780
g69
(g90
g71
NtRp1781
(dp1782
g74
(dp1783
g94
g95
ssg83
g1777
sg76
(lp1784
g705
asbag69
(g90
g71
NtRp1785
(dp1786
g74
(dp1787
g101
g102
ssg83
g1777
sg76
(lp1788
S':'
asbag69
(g90
g71
NtRp1789
(dp1790
g74
(dp1791
sg83
g1777
sg76
(lp1792
g69
(g70
g71
NtRp1793
(dp1794
g74
(dp1795
g82
I4
ssg83
g1789
sg76
(lp1796
g69
(g78
g71
NtRp1797
(dp1798
g74
(dp1799
g82
I3
ssg83
Nsg76
(lp1800
sbasbasbasbag69
(g85
g71
NtRp1801
(dp1802
g74
(dp1803
sg83
g1732
sg76
(lp1804
g69
(g90
g71
NtRp1805
(dp1806
g74
(dp1807
g94
g95
ssg83
g1801
sg76
(lp1808
g730
asbag69
(g90
g71
NtRp1809
(dp1810
g74
(dp1811
g101
g102
ssg83
g1801
sg76
(lp1812
S':'
asbag69
(g90
g71
NtRp1813
(dp1814
g74
(dp1815
sg83
g1801
sg76
(lp1816
g69
(g70
g71
NtRp1817
(dp1818
g74
(dp1819
g82
I4
ssg83
g1813
sg76
(lp1820
S"<Values at 0x9d8d7ec: {'verbose': False, 'ip': '127.0.0.1', 'shutdown_timeout': 5, 'taskbar': False, 'nocron': False, 'pid_filename': 'httpserver.pid', 'maxthreads': None, 'softcron': False, 'server_name': 'ubuntu', 'bpython': False, 'nogui': False, 'port': 8000, 'extcron': False, 'debuglevel': 30, 'test': None, 'folder': '/home/kaique/Projects/WebApps/web2py', 'config': '', 'import_models': False, 'winservice': '', 'shell': None, 'run': '', 'log_filename': 'httpserver.log', 'args': [''], 'socket_timeout': 1, 'ssl_ca_certificate': None, 'scheduler': None, 'profiler_filename': None, 'ssl_private_key': '', 'password': 'dev', 'request_queue_size': 5, 'ssl_certificate': '', 'cronjob': False, 'numthreads': None, 'quiet': False, 'interfaces': None, 'minthreads': None, 'timeout': 10, 'plain': False, 'nobanner': False}>"
p1821
asbasbasbag69
(g85
g71
NtRp1822
(dp1823
g74
(dp1824
sg83
g1732
sg76
(lp1825
g69
(g90
g71
NtRp1826
(dp1827
g74
(dp1828
g94
g95
ssg83
g1822
sg76
(lp1829
g752
asbag69
(g90
g71
NtRp1830
(dp1831
g74
(dp1832
g101
g102
ssg83
g1822
sg76
(lp1833
S':'
asbag69
(g90
g71
NtRp1834
(dp1835
g74
(dp1836
sg83
g1822
sg76
(lp1837
g69
(g70
g71
NtRp1838
(dp1839
g74
(dp1840
g82
I4
ssg83
g1834
sg76
(lp1841
S'set([])'
p1842
asbasbasbag69
(g85
g71
NtRp1843
(dp1844
g74
(dp1845
sg83
g1732
sg76
(lp1846
g69
(g90
g71
NtRp1847
(dp1848
g74
(dp1849
g94
g95
ssg83
g1843
sg76
(lp1850
g774
asbag69
(g90
g71
NtRp1851
(dp1852
g74
(dp1853
g101
g102
ssg83
g1843
sg76
(lp1854
S':'
asbag69
(g90
g71
NtRp1855
(dp1856
g74
(dp1857
sg83
g1843
sg76
(lp1858
g69
(g70
g71
NtRp1859
(dp1860
g74
(dp1861
g82
I4
ssg83
g1855
sg76
(lp1862
g112
asbasbasbag69
(g85
g71
NtRp1863
(dp1864
g74
(dp1865
sg83
g1732
sg76
(lp1866
g69
(g90
g71
NtRp1867
(dp1868
g74
(dp1869
g94
g95
ssg83
g1863
sg76
(lp1870
g795
asbag69
(g90
g71
NtRp1871
(dp1872
g74
(dp1873
g101
g102
ssg83
g1863
sg76
(lp1874
S':'
asbag69
(g90
g71
NtRp1875
(dp1876
g74
(dp1877
sg83
g1863
sg76
(lp1878
g69
(g70
g71
NtRp1879
(dp1880
g74
(dp1881
g82
I4
ssg83
g1875
sg76
(lp1882
g808
asbasbasbag69
(g85
g71
NtRp1883
(dp1884
g74
(dp1885
sg83
g1732
sg76
(lp1886
g69
(g90
g71
NtRp1887
(dp1888
g74
(dp1889
g94
g95
ssg83
g1883
sg76
(lp1890
g1037
asbag69
(g90
g71
NtRp1891
(dp1892
g74
(dp1893
g101
g102
ssg83
g1883
sg76
(lp1894
S':'
asbag69
(g90
g71
NtRp1895
(dp1896
g74
(dp1897
sg83
g1883
sg76
(lp1898
g69
(g70
g71
NtRp1899
(dp1900
g74
(dp1901
g82
I4
ssg83
g1895
sg76
(lp1902
g112
asbasbasbag69
(g85
g71
NtRp1903
(dp1904
g74
(dp1905
sg83
g1732
sg76
(lp1906
g69
(g90
g71
NtRp1907
(dp1908
g74
(dp1909
g94
g95
ssg83
g1903
sg76
(lp1910
g1058
asbag69
(g90
g71
NtRp1911
(dp1912
g74
(dp1913
g101
g102
ssg83
g1903
sg76
(lp1914
S':'
asbag69
(g90
g71
NtRp1915
(dp1916
g74
(dp1917
sg83
g1903
sg76
(lp1918
g69
(g70
g71
NtRp1919
(dp1920
g74
(dp1921
g82
I4
ssg83
g1915
sg76
(lp1922
g112
asbasbasbag69
(g85
g71
NtRp1923
(dp1924
g74
(dp1925
sg83
g1732
sg76
(lp1926
g69
(g90
g71
NtRp1927
(dp1928
g74
(dp1929
g94
g95
ssg83
g1923
sg76
(lp1930
g1296
asbag69
(g90
g71
NtRp1931
(dp1932
g74
(dp1933
g101
g102
ssg83
g1923
sg76
(lp1934
S':'
asbag69
(g90
g71
NtRp1935
(dp1936
g74
(dp1937
sg83
g1923
sg76
(lp1938
g69
(g70
g71
NtRp1939
(dp1940
g74
(dp1941
g82
I4
ssg83
g1935
sg76
(lp1942
g1309
asbasbasbag69
(g85
g71
NtRp1943
(dp1944
g74
(dp1945
sg83
g1732
sg76
(lp1946
g69
(g90
g71
NtRp1947
(dp1948
g74
(dp1949
g94
g95
ssg83
g1943
sg76
(lp1950
g1339
asbag69
(g90
g71
NtRp1951
(dp1952
g74
(dp1953
g101
g102
ssg83
g1943
sg76
(lp1954
S':'
asbag69
(g90
g71
NtRp1955
(dp1956
g74
(dp1957
sg83
g1943
sg76
(lp1958
g69
(g70
g71
NtRp1959
(dp1960
g74
(dp1961
g82
I4
ssg83
g1955
sg76
(lp1962
g69
(g78
g71
NtRp1963
(dp1964
g74
(dp1965
g82
I3
ssg83
Nsg76
(lp1966
g69
(g85
g71
NtRp1967
(dp1968
g74
(dp1969
sg83
g1963
sg76
(lp1970
g69
(g90
g71
NtRp1971
(dp1972
g74
(dp1973
sg83
g1967
sg76
(lp1974
g69
(g70
g71
NtRp1975
(dp1976
g74
(dp1977
g82
I3
ssg83
g1971
sg76
(lp1978
S'1'
asbasbasbag69
(g85
g71
NtRp1979
(dp1980
g74
(dp1981
sg83
g1963
sg76
(lp1982
g69
(g90
g71
NtRp1983
(dp1984
g74
(dp1985
sg83
g1979
sg76
(lp1986
g69
(g70
g71
NtRp1987
(dp1988
g74
(dp1989
g82
I3
ssg83
g1983
sg76
(lp1990
S'99'
p1991
asbasbasbag69
(g85
g71
NtRp1992
(dp1993
g74
(dp1994
sg83
g1963
sg76
(lp1995
g69
(g90
g71
NtRp1996
(dp1997
g74
(dp1998
sg83
g1992
sg76
(lp1999
g69
(g70
g71
NtRp2000
(dp2001
g74
(dp2002
g82
I3
ssg83
g1996
sg76
(lp2003
S'4'
asbasbasbag69
(g85
g71
NtRp2004
(dp2005
g74
(dp2006
sg83
g1963
sg76
(lp2007
g69
(g90
g71
NtRp2008
(dp2009
g74
(dp2010
sg83
g2004
sg76
(lp2011
g69
(g70
g71
NtRp2012
(dp2013
g74
(dp2014
g82
I3
ssg83
g2008
sg76
(lp2015
S'datetime.datetime(2011, 12, 14, 14, 46, 14)'
p2016
asbasbasbag69
(g85
g71
NtRp2017
(dp2018
g74
(dp2019
sg83
g1963
sg76
(lp2020
g69
(g90
g71
NtRp2021
(dp2022
g74
(dp2023
sg83
g2017
sg76
(lp2024
g69
(g70
g71
NtRp2025
(dp2026
g74
(dp2027
g82
I3
ssg83
g2021
sg76
(lp2028
g1418
asbasbasbasbasbasbasbasbasbasbasbag69
(g85
g71
NtRp2029
(dp2030
g74
(dp2031
sg83
g79
sg76
(lp2032
g69
(g90
g71
NtRp2033
(dp2034
g74
(dp2035
g94
g95
ssg83
g2029
sg76
(lp2036
S'is_https'
p2037
asbag69
(g90
g71
NtRp2038
(dp2039
g74
(dp2040
g101
g102
ssg83
g2029
sg76
(lp2041
S':'
asbag69
(g90
g71
NtRp2042
(dp2043
g74
(dp2044
sg83
g2029
sg76
(lp2045
g69
(g70
g71
NtRp2046
(dp2047
g74
(dp2048
g82
I5
ssg83
g2042
sg76
(lp2049
g112
asbasbasbag69
(g85
g71
NtRp2050
(dp2051
g74
(dp2052
sg83
g79
sg76
(lp2053
g69
(g90
g71
NtRp2054
(dp2055
g74
(dp2056
g94
g95
ssg83
g2050
sg76
(lp2057
S'is_local'
p2058
asbag69
(g90
g71
NtRp2059
(dp2060
g74
(dp2061
g101
g102
ssg83
g2050
sg76
(lp2062
S':'
asbag69
(g90
g71
NtRp2063
(dp2064
g74
(dp2065
sg83
g2050
sg76
(lp2066
g69
(g70
g71
NtRp2067
(dp2068
g74
(dp2069
g82
I5
ssg83
g2063
sg76
(lp2070
g1527
asbasbasbag69
(g85
g71
NtRp2071
(dp2072
g74
(dp2073
sg83
g79
sg76
(lp2074
g69
(g90
g71
NtRp2075
(dp2076
g74
(dp2077
g94
g95
ssg83
g2071
sg76
(lp2078
S'is_restful'
p2079
asbag69
(g90
g71
NtRp2080
(dp2081
g74
(dp2082
g101
g102
ssg83
g2071
sg76
(lp2083
S':'
asbag69
(g90
g71
NtRp2084
(dp2085
g74
(dp2086
sg83
g2071
sg76
(lp2087
g69
(g70
g71
NtRp2088
(dp2089
g74
(dp2090
g82
I5
ssg83
g2084
sg76
(lp2091
g112
asbasbasbag69
(g85
g71
NtRp2092
(dp2093
g74
(dp2094
sg83
g79
sg76
(lp2095
g69
(g90
g71
NtRp2096
(dp2097
g74
(dp2098
g94
g95
ssg83
g2092
sg76
(lp2099
S'now'
p2100
asbag69
(g90
g71
NtRp2101
(dp2102
g74
(dp2103
g101
g102
ssg83
g2092
sg76
(lp2104
S':'
asbag69
(g90
g71
NtRp2105
(dp2106
g74
(dp2107
sg83
g2092
sg76
(lp2108
g69
(g70
g71
NtRp2109
(dp2110
g74
(dp2111
g82
I5
ssg83
g2105
sg76
(lp2112
S'datetime.datetime(2012, 2, 1, 17, 27, 3, 864427)'
p2113
asbasbasbag69
(g85
g71
NtRp2114
(dp2115
g74
(dp2116
sg83
g79
sg76
(lp2117
g69
(g90
g71
NtRp2118
(dp2119
g74
(dp2120
g94
g95
ssg83
g2114
sg76
(lp2121
S'post_vars'
p2122
asbag69
(g90
g71
NtRp2123
(dp2124
g74
(dp2125
g101
g102
ssg83
g2114
sg76
(lp2126
S':'
asbag69
(g90
g71
NtRp2127
(dp2128
g74
(dp2129
sg83
g2114
sg76
(lp2130
g69
(g70
g71
NtRp2131
(dp2132
g74
(dp2133
g82
I5
ssg83
g2127
sg76
(lp2134
g69
(g78
g71
NtRp2135
(dp2136
g74
(dp2137
g82
I4
ssg83
Nsg76
(lp2138
sbasbasbasbag69
(g85
g71
NtRp2139
(dp2140
g74
(dp2141
sg83
g79
sg76
(lp2142
g69
(g90
g71
NtRp2143
(dp2144
g74
(dp2145
g94
g95
ssg83
g2139
sg76
(lp2146
S'url'
p2147
asbag69
(g90
g71
NtRp2148
(dp2149
g74
(dp2150
g101
g102
ssg83
g2139
sg76
(lp2151
S':'
asbag69
(g90
g71
NtRp2152
(dp2153
g74
(dp2154
sg83
g2139
sg76
(lp2155
g69
(g70
g71
NtRp2156
(dp2157
g74
(dp2158
g82
I5
ssg83
g2152
sg76
(lp2159
S'/makebrand/project/new'
p2160
asbasbasbag69
(g85
g71
NtRp2161
(dp2162
g74
(dp2163
sg83
g79
sg76
(lp2164
g69
(g90
g71
NtRp2165
(dp2166
g74
(dp2167
g94
g95
ssg83
g2161
sg76
(lp2168
S'utcnow'
p2169
asbag69
(g90
g71
NtRp2170
(dp2171
g74
(dp2172
g101
g102
ssg83
g2161
sg76
(lp2173
S':'
asbag69
(g90
g71
NtRp2174
(dp2175
g74
(dp2176
sg83
g2161
sg76
(lp2177
g69
(g70
g71
NtRp2178
(dp2179
g74
(dp2180
g82
I5
ssg83
g2174
sg76
(lp2181
S'datetime.datetime(2012, 2, 1, 19, 27, 3, 864449)'
p2182
asbasbasbag69
(g85
g71
NtRp2183
(dp2184
g74
(dp2185
sg83
g79
sg76
(lp2186
g69
(g90
g71
NtRp2187
(dp2188
g74
(dp2189
g94
g95
ssg83
g2183
sg76
(lp2190
S'uuid'
p2191
asbag69
(g90
g71
NtRp2192
(dp2193
g74
(dp2194
g101
g102
ssg83
g2183
sg76
(lp2195
S':'
asbag69
(g90
g71
NtRp2196
(dp2197
g74
(dp2198
sg83
g2183
sg76
(lp2199
g69
(g70
g71
NtRp2200
(dp2201
g74
(dp2202
g82
I5
ssg83
g2196
sg76
(lp2203
S'makebrand/127.0.0.1.2012-02-01.17-27-03.3906062c-ace5-49a8-af45-0fe6440ed068'
p2204
asbasbasbag69
(g85
g71
NtRp2205
(dp2206
g74
(dp2207
sg83
g79
sg76
(lp2208
g69
(g90
g71
NtRp2209
(dp2210
g74
(dp2211
g94
g95
ssg83
g2205
sg76
(lp2212
S'vars'
p2213
asbag69
(g90
g71
NtRp2214
(dp2215
g74
(dp2216
g101
g102
ssg83
g2205
sg76
(lp2217
S':'
asbag69
(g90
g71
NtRp2218
(dp2219
g74
(dp2220
sg83
g2205
sg76
(lp2221
g69
(g70
g71
NtRp2222
(dp2223
g74
(dp2224
g82
I5
ssg83
g2218
sg76
(lp2225
g69
(g78
g71
NtRp2226
(dp2227
g74
(dp2228
g82
I4
ssg83
Nsg76
(lp2229
sbasbasbasbag69
(g85
g71
NtRp2230
(dp2231
g74
(dp2232
sg83
g79
sg76
(lp2233
g69
(g90
g71
NtRp2234
(dp2235
g74
(dp2236
g94
g95
ssg83
g2230
sg76
(lp2237
S'wsgi'
p2238
asbag69
(g90
g71
NtRp2239
(dp2240
g74
(dp2241
g101
g102
ssg83
g2230
sg76
(lp2242
S':'
asbag69
(g90
g71
NtRp2243
(dp2244
g74
(dp2245
sg83
g2230
sg76
(lp2246
g69
(g70
g71
NtRp2247
(dp2248
g74
(dp2249
g82
I5
ssg83
g2243
sg76
(lp2250
g69
(g78
g71
NtRp2251
(dp2252
g74
(dp2253
g82
I4
ssg83
Nsg76
(lp2254
g69
(g85
g71
NtRp2255
(dp2256
g74
(dp2257
sg83
g2251
sg76
(lp2258
g69
(g90
g71
NtRp2259
(dp2260
g74
(dp2261
g94
g95
ssg83
g2255
sg76
(lp2262
S'environ'
p2263
asbag69
(g90
g71
NtRp2264
(dp2265
g74
(dp2266
g101
g102
ssg83
g2255
sg76
(lp2267
S':'
asbag69
(g90
g71
NtRp2268
(dp2269
g74
(dp2270
sg83
g2255
sg76
(lp2271
g69
(g70
g71
NtRp2272
(dp2273
g74
(dp2274
g82
I4
ssg83
g2268
sg76
(lp2275
g69
(g78
g71
NtRp2276
(dp2277
g74
(dp2278
g82
I3
ssg83
Nsg76
(lp2279
g69
(g85
g71
NtRp2280
(dp2281
g74
(dp2282
sg83
g2276
sg76
(lp2283
g69
(g90
g71
NtRp2284
(dp2285
g74
(dp2286
g94
g95
ssg83
g2280
sg76
(lp2287
S'HTTP_ACCEPT'
p2288
asbag69
(g90
g71
NtRp2289
(dp2290
g74
(dp2291
g101
g102
ssg83
g2280
sg76
(lp2292
S':'
asbag69
(g90
g71
NtRp2293
(dp2294
g74
(dp2295
sg83
g2280
sg76
(lp2296
g69
(g70
g71
NtRp2297
(dp2298
g74
(dp2299
g82
I3
ssg83
g2293
sg76
(lp2300
g830
asbasbasbag69
(g85
g71
NtRp2301
(dp2302
g74
(dp2303
sg83
g2276
sg76
(lp2304
g69
(g90
g71
NtRp2305
(dp2306
g74
(dp2307
g94
g95
ssg83
g2301
sg76
(lp2308
S'HTTP_ACCEPT_CHARSET'
p2309
asbag69
(g90
g71
NtRp2310
(dp2311
g74
(dp2312
g101
g102
ssg83
g2301
sg76
(lp2313
S':'
asbag69
(g90
g71
NtRp2314
(dp2315
g74
(dp2316
sg83
g2301
sg76
(lp2317
g69
(g70
g71
NtRp2318
(dp2319
g74
(dp2320
g82
I3
ssg83
g2314
sg76
(lp2321
g852
asbasbasbag69
(g85
g71
NtRp2322
(dp2323
g74
(dp2324
sg83
g2276
sg76
(lp2325
g69
(g90
g71
NtRp2326
(dp2327
g74
(dp2328
g94
g95
ssg83
g2322
sg76
(lp2329
S'HTTP_ACCEPT_ENCODING'
p2330
asbag69
(g90
g71
NtRp2331
(dp2332
g74
(dp2333
g101
g102
ssg83
g2322
sg76
(lp2334
S':'
asbag69
(g90
g71
NtRp2335
(dp2336
g74
(dp2337
sg83
g2322
sg76
(lp2338
g69
(g70
g71
NtRp2339
(dp2340
g74
(dp2341
g82
I3
ssg83
g2335
sg76
(lp2342
g874
asbasbasbag69
(g85
g71
NtRp2343
(dp2344
g74
(dp2345
sg83
g2276
sg76
(lp2346
g69
(g90
g71
NtRp2347
(dp2348
g74
(dp2349
g94
g95
ssg83
g2343
sg76
(lp2350
S'HTTP_ACCEPT_LANGUAGE'
p2351
asbag69
(g90
g71
NtRp2352
(dp2353
g74
(dp2354
g101
g102
ssg83
g2343
sg76
(lp2355
S':'
asbag69
(g90
g71
NtRp2356
(dp2357
g74
(dp2358
sg83
g2343
sg76
(lp2359
g69
(g70
g71
NtRp2360
(dp2361
g74
(dp2362
g82
I3
ssg83
g2356
sg76
(lp2363
g896
asbasbasbag69
(g85
g71
NtRp2364
(dp2365
g74
(dp2366
sg83
g2276
sg76
(lp2367
g69
(g90
g71
NtRp2368
(dp2369
g74
(dp2370
g94
g95
ssg83
g2364
sg76
(lp2371
S'HTTP_CACHE_CONTROL'
p2372
asbag69
(g90
g71
NtRp2373
(dp2374
g74
(dp2375
g101
g102
ssg83
g2364
sg76
(lp2376
S':'
asbag69
(g90
g71
NtRp2377
(dp2378
g74
(dp2379
sg83
g2364
sg76
(lp2380
g69
(g70
g71
NtRp2381
(dp2382
g74
(dp2383
g82
I3
ssg83
g2377
sg76
(lp2384
g918
asbasbasbag69
(g85
g71
NtRp2385
(dp2386
g74
(dp2387
sg83
g2276
sg76
(lp2388
g69
(g90
g71
NtRp2389
(dp2390
g74
(dp2391
g94
g95
ssg83
g2385
sg76
(lp2392
S'HTTP_CONNECTION'
p2393
asbag69
(g90
g71
NtRp2394
(dp2395
g74
(dp2396
g101
g102
ssg83
g2385
sg76
(lp2397
S':'
asbag69
(g90
g71
NtRp2398
(dp2399
g74
(dp2400
sg83
g2385
sg76
(lp2401
g69
(g70
g71
NtRp2402
(dp2403
g74
(dp2404
g82
I3
ssg83
g2398
sg76
(lp2405
g940
asbasbasbag69
(g85
g71
NtRp2406
(dp2407
g74
(dp2408
sg83
g2276
sg76
(lp2409
g69
(g90
g71
NtRp2410
(dp2411
g74
(dp2412
g94
g95
ssg83
g2406
sg76
(lp2413
S'HTTP_COOKIE'
p2414
asbag69
(g90
g71
NtRp2415
(dp2416
g74
(dp2417
g101
g102
ssg83
g2406
sg76
(lp2418
S':'
asbag69
(g90
g71
NtRp2419
(dp2420
g74
(dp2421
sg83
g2406
sg76
(lp2422
g69
(g70
g71
NtRp2423
(dp2424
g74
(dp2425
g82
I3
ssg83
g2419
sg76
(lp2426
g962
asbasbasbag69
(g85
g71
NtRp2427
(dp2428
g74
(dp2429
sg83
g2276
sg76
(lp2430
g69
(g90
g71
NtRp2431
(dp2432
g74
(dp2433
g94
g95
ssg83
g2427
sg76
(lp2434
S'HTTP_HOST'
p2435
asbag69
(g90
g71
NtRp2436
(dp2437
g74
(dp2438
g101
g102
ssg83
g2427
sg76
(lp2439
S':'
asbag69
(g90
g71
NtRp2440
(dp2441
g74
(dp2442
sg83
g2427
sg76
(lp2443
g69
(g70
g71
NtRp2444
(dp2445
g74
(dp2446
g82
I3
ssg83
g2440
sg76
(lp2447
g984
asbasbasbag69
(g85
g71
NtRp2448
(dp2449
g74
(dp2450
sg83
g2276
sg76
(lp2451
g69
(g90
g71
NtRp2452
(dp2453
g74
(dp2454
g94
g95
ssg83
g2448
sg76
(lp2455
S'HTTP_REFERER'
p2456
asbag69
(g90
g71
NtRp2457
(dp2458
g74
(dp2459
g101
g102
ssg83
g2448
sg76
(lp2460
S':'
asbag69
(g90
g71
NtRp2461
(dp2462
g74
(dp2463
sg83
g2448
sg76
(lp2464
g69
(g70
g71
NtRp2465
(dp2466
g74
(dp2467
g82
I3
ssg83
g2461
sg76
(lp2468
g1006
asbasbasbag69
(g85
g71
NtRp2469
(dp2470
g74
(dp2471
sg83
g2276
sg76
(lp2472
g69
(g90
g71
NtRp2473
(dp2474
g74
(dp2475
g94
g95
ssg83
g2469
sg76
(lp2476
S'HTTP_USER_AGENT'
p2477
asbag69
(g90
g71
NtRp2478
(dp2479
g74
(dp2480
g101
g102
ssg83
g2469
sg76
(lp2481
S':'
asbag69
(g90
g71
NtRp2482
(dp2483
g74
(dp2484
sg83
g2469
sg76
(lp2485
g69
(g70
g71
NtRp2486
(dp2487
g74
(dp2488
g82
I3
ssg83
g2482
sg76
(lp2489
g1028
asbasbasbag69
(g85
g71
NtRp2490
(dp2491
g74
(dp2492
sg83
g2276
sg76
(lp2493
g69
(g90
g71
NtRp2494
(dp2495
g74
(dp2496
g94
g95
ssg83
g2490
sg76
(lp2497
S'PATH_INFO'
p2498
asbag69
(g90
g71
NtRp2499
(dp2500
g74
(dp2501
g101
g102
ssg83
g2490
sg76
(lp2502
S':'
asbag69
(g90
g71
NtRp2503
(dp2504
g74
(dp2505
sg83
g2490
sg76
(lp2506
g69
(g70
g71
NtRp2507
(dp2508
g74
(dp2509
g82
I3
ssg83
g2503
sg76
(lp2510
g1092
asbasbasbag69
(g85
g71
NtRp2511
(dp2512
g74
(dp2513
sg83
g2276
sg76
(lp2514
g69
(g90
g71
NtRp2515
(dp2516
g74
(dp2517
g94
g95
ssg83
g2511
sg76
(lp2518
S'QUERY_STRING'
p2519
asbag69
(g90
g71
NtRp2520
(dp2521
g74
(dp2522
g101
g102
ssg83
g2511
sg76
(lp2523
S':'
asbag69
(g90
g71
NtRp2524
(dp2525
g74
(dp2526
sg83
g2511
sg76
(lp2527
g69
(g70
g71
NtRp2528
(dp2529
g74
(dp2530
g82
I3
ssg83
g2524
sg76
(lp2531
S''
asbasbasbag69
(g85
g71
NtRp2532
(dp2533
g74
(dp2534
sg83
g2276
sg76
(lp2535
g69
(g90
g71
NtRp2536
(dp2537
g74
(dp2538
g94
g95
ssg83
g2532
sg76
(lp2539
S'REMOTE_ADDR'
p2540
asbag69
(g90
g71
NtRp2541
(dp2542
g74
(dp2543
g101
g102
ssg83
g2532
sg76
(lp2544
S':'
asbag69
(g90
g71
NtRp2545
(dp2546
g74
(dp2547
sg83
g2532
sg76
(lp2548
g69
(g70
g71
NtRp2549
(dp2550
g74
(dp2551
g82
I3
ssg83
g2545
sg76
(lp2552
g202
asbasbasbag69
(g85
g71
NtRp2553
(dp2554
g74
(dp2555
sg83
g2276
sg76
(lp2556
g69
(g90
g71
NtRp2557
(dp2558
g74
(dp2559
g94
g95
ssg83
g2553
sg76
(lp2560
S'REMOTE_PORT'
p2561
asbag69
(g90
g71
NtRp2562
(dp2563
g74
(dp2564
g101
g102
ssg83
g2553
sg76
(lp2565
S':'
asbag69
(g90
g71
NtRp2566
(dp2567
g74
(dp2568
sg83
g2553
sg76
(lp2569
g69
(g70
g71
NtRp2570
(dp2571
g74
(dp2572
g82
I3
ssg83
g2566
sg76
(lp2573
g1156
asbasbasbag69
(g85
g71
NtRp2574
(dp2575
g74
(dp2576
sg83
g2276
sg76
(lp2577
g69
(g90
g71
NtRp2578
(dp2579
g74
(dp2580
g94
g95
ssg83
g2574
sg76
(lp2581
S'REQUEST_METHOD'
p2582
asbag69
(g90
g71
NtRp2583
(dp2584
g74
(dp2585
g101
g102
ssg83
g2574
sg76
(lp2586
S':'
asbag69
(g90
g71
NtRp2587
(dp2588
g74
(dp2589
sg83
g2574
sg76
(lp2590
g69
(g70
g71
NtRp2591
(dp2592
g74
(dp2593
g82
I3
ssg83
g2587
sg76
(lp2594
g1178
asbasbasbag69
(g85
g71
NtRp2595
(dp2596
g74
(dp2597
sg83
g2276
sg76
(lp2598
g69
(g90
g71
NtRp2599
(dp2600
g74
(dp2601
g94
g95
ssg83
g2595
sg76
(lp2602
S'SCRIPT_NAME'
p2603
asbag69
(g90
g71
NtRp2604
(dp2605
g74
(dp2606
g101
g102
ssg83
g2595
sg76
(lp2607
S':'
asbag69
(g90
g71
NtRp2608
(dp2609
g74
(dp2610
sg83
g2595
sg76
(lp2611
g69
(g70
g71
NtRp2612
(dp2613
g74
(dp2614
g82
I3
ssg83
g2608
sg76
(lp2615
S''
asbasbasbag69
(g85
g71
NtRp2616
(dp2617
g74
(dp2618
sg83
g2276
sg76
(lp2619
g69
(g90
g71
NtRp2620
(dp2621
g74
(dp2622
g94
g95
ssg83
g2616
sg76
(lp2623
S'SERVER_NAME'
p2624
asbag69
(g90
g71
NtRp2625
(dp2626
g74
(dp2627
g101
g102
ssg83
g2616
sg76
(lp2628
S':'
asbag69
(g90
g71
NtRp2629
(dp2630
g74
(dp2631
sg83
g2616
sg76
(lp2632
g69
(g70
g71
NtRp2633
(dp2634
g74
(dp2635
g82
I3
ssg83
g2629
sg76
(lp2636
g1221
asbasbasbag69
(g85
g71
NtRp2637
(dp2638
g74
(dp2639
sg83
g2276
sg76
(lp2640
g69
(g90
g71
NtRp2641
(dp2642
g74
(dp2643
g94
g95
ssg83
g2637
sg76
(lp2644
S'SERVER_PORT'
p2645
asbag69
(g90
g71
NtRp2646
(dp2647
g74
(dp2648
g101
g102
ssg83
g2637
sg76
(lp2649
S':'
asbag69
(g90
g71
NtRp2650
(dp2651
g74
(dp2652
sg83
g2637
sg76
(lp2653
g69
(g70
g71
NtRp2654
(dp2655
g74
(dp2656
g82
I3
ssg83
g2650
sg76
(lp2657
g1243
asbasbasbag69
(g85
g71
NtRp2658
(dp2659
g74
(dp2660
sg83
g2276
sg76
(lp2661
g69
(g90
g71
NtRp2662
(dp2663
g74
(dp2664
g94
g95
ssg83
g2658
sg76
(lp2665
S'SERVER_PROTOCOL'
p2666
asbag69
(g90
g71
NtRp2667
(dp2668
g74
(dp2669
g101
g102
ssg83
g2658
sg76
(lp2670
S':'
asbag69
(g90
g71
NtRp2671
(dp2672
g74
(dp2673
sg83
g2658
sg76
(lp2674
g69
(g70
g71
NtRp2675
(dp2676
g74
(dp2677
g82
I3
ssg83
g2671
sg76
(lp2678
g1265
asbasbasbag69
(g85
g71
NtRp2679
(dp2680
g74
(dp2681
sg83
g2276
sg76
(lp2682
g69
(g90
g71
NtRp2683
(dp2684
g74
(dp2685
g94
g95
ssg83
g2679
sg76
(lp2686
S'SERVER_SOFTWARE'
p2687
asbag69
(g90
g71
NtRp2688
(dp2689
g74
(dp2690
g101
g102
ssg83
g2679
sg76
(lp2691
S':'
asbag69
(g90
g71
NtRp2692
(dp2693
g74
(dp2694
sg83
g2679
sg76
(lp2695
g69
(g70
g71
NtRp2696
(dp2697
g74
(dp2698
g82
I3
ssg83
g2692
sg76
(lp2699
g1287
asbasbasbag69
(g85
g71
NtRp2700
(dp2701
g74
(dp2702
sg83
g2276
sg76
(lp2703
g69
(g90
g71
NtRp2704
(dp2705
g74
(dp2706
g94
g95
ssg83
g2700
sg76
(lp2707
S'wsgi.errors'
p2708
asbag69
(g90
g71
NtRp2709
(dp2710
g74
(dp2711
g101
g102
ssg83
g2700
sg76
(lp2712
S':'
asbag69
(g90
g71
NtRp2713
(dp2714
g74
(dp2715
sg83
g2700
sg76
(lp2716
g69
(g70
g71
NtRp2717
(dp2718
g74
(dp2719
g82
I3
ssg83
g2713
sg76
(lp2720
S"<open file '<stderr>', mode 'w' at 0xb73ee0d0>"
p2721
asbasbasbag69
(g85
g71
NtRp2722
(dp2723
g74
(dp2724
sg83
g2276
sg76
(lp2725
g69
(g90
g71
NtRp2726
(dp2727
g74
(dp2728
g94
g95
ssg83
g2722
sg76
(lp2729
S'wsgi.file_wrapper'
p2730
asbag69
(g90
g71
NtRp2731
(dp2732
g74
(dp2733
g101
g102
ssg83
g2722
sg76
(lp2734
S':'
asbag69
(g90
g71
NtRp2735
(dp2736
g74
(dp2737
sg83
g2722
sg76
(lp2738
g69
(g70
g71
NtRp2739
(dp2740
g74
(dp2741
g82
I3
ssg83
g2735
sg76
(lp2742
S'<class wsgiref.util.FileWrapper at 0x9d3e20c>'
p2743
asbasbasbag69
(g85
g71
NtRp2744
(dp2745
g74
(dp2746
sg83
g2276
sg76
(lp2747
g69
(g90
g71
NtRp2748
(dp2749
g74
(dp2750
g94
g95
ssg83
g2744
sg76
(lp2751
S'wsgi.input'
p2752
asbag69
(g90
g71
NtRp2753
(dp2754
g74
(dp2755
g101
g102
ssg83
g2744
sg76
(lp2756
S':'
asbag69
(g90
g71
NtRp2757
(dp2758
g74
(dp2759
sg83
g2744
sg76
(lp2760
g69
(g70
g71
NtRp2761
(dp2762
g74
(dp2763
g82
I3
ssg83
g2757
sg76
(lp2764
S'<cStringIO.StringO object at 0xa0b7860>'
p2765
asbasbasbag69
(g85
g71
NtRp2766
(dp2767
g74
(dp2768
sg83
g2276
sg76
(lp2769
g69
(g90
g71
NtRp2770
(dp2771
g74
(dp2772
g94
g95
ssg83
g2766
sg76
(lp2773
S'wsgi.multiprocess'
p2774
asbag69
(g90
g71
NtRp2775
(dp2776
g74
(dp2777
g101
g102
ssg83
g2766
sg76
(lp2778
S':'
asbag69
(g90
g71
NtRp2779
(dp2780
g74
(dp2781
sg83
g2766
sg76
(lp2782
g69
(g70
g71
NtRp2783
(dp2784
g74
(dp2785
g82
I3
ssg83
g2779
sg76
(lp2786
g112
asbasbasbag69
(g85
g71
NtRp2787
(dp2788
g74
(dp2789
sg83
g2276
sg76
(lp2790
g69
(g90
g71
NtRp2791
(dp2792
g74
(dp2793
g94
g95
ssg83
g2787
sg76
(lp2794
S'wsgi.multithread'
p2795
asbag69
(g90
g71
NtRp2796
(dp2797
g74
(dp2798
g101
g102
ssg83
g2787
sg76
(lp2799
S':'
asbag69
(g90
g71
NtRp2800
(dp2801
g74
(dp2802
sg83
g2787
sg76
(lp2803
g69
(g70
g71
NtRp2804
(dp2805
g74
(dp2806
g82
I3
ssg83
g2800
sg76
(lp2807
g1527
asbasbasbag69
(g85
g71
NtRp2808
(dp2809
g74
(dp2810
sg83
g2276
sg76
(lp2811
g69
(g90
g71
NtRp2812
(dp2813
g74
(dp2814
g94
g95
ssg83
g2808
sg76
(lp2815
S'wsgi.run_once'
p2816
asbag69
(g90
g71
NtRp2817
(dp2818
g74
(dp2819
g101
g102
ssg83
g2808
sg76
(lp2820
S':'
asbag69
(g90
g71
NtRp2821
(dp2822
g74
(dp2823
sg83
g2808
sg76
(lp2824
g69
(g70
g71
NtRp2825
(dp2826
g74
(dp2827
g82
I3
ssg83
g2821
sg76
(lp2828
g112
asbasbasbag69
(g85
g71
NtRp2829
(dp2830
g74
(dp2831
sg83
g2276
sg76
(lp2832
g69
(g90
g71
NtRp2833
(dp2834
g74
(dp2835
g94
g95
ssg83
g2829
sg76
(lp2836
S'wsgi.url_scheme'
p2837
asbag69
(g90
g71
NtRp2838
(dp2839
g74
(dp2840
g101
g102
ssg83
g2829
sg76
(lp2841
S':'
asbag69
(g90
g71
NtRp2842
(dp2843
g74
(dp2844
sg83
g2829
sg76
(lp2845
g69
(g70
g71
NtRp2846
(dp2847
g74
(dp2848
g82
I3
ssg83
g2842
sg76
(lp2849
g1570
asbasbasbag69
(g85
g71
NtRp2850
(dp2851
g74
(dp2852
sg83
g2276
sg76
(lp2853
g69
(g90
g71
NtRp2854
(dp2855
g74
(dp2856
g94
g95
ssg83
g2850
sg76
(lp2857
S'wsgi.version'
p2858
asbag69
(g90
g71
NtRp2859
(dp2860
g74
(dp2861
g101
g102
ssg83
g2850
sg76
(lp2862
S':'
asbag69
(g90
g71
NtRp2863
(dp2864
g74
(dp2865
sg83
g2850
sg76
(lp2866
g69
(g70
g71
NtRp2867
(dp2868
g74
(dp2869
g82
I3
ssg83
g2863
sg76
(lp2870
S'1'
asbasbasbasbasbasbasbasbasbasbasbasbasbsS'frames'
p2871
(lp2872
(dp2873
S'file'
p2874
S'/home/kaique/Projects/WebApps/web2py/gluon/restricted.py'
p2875
sS'dump'
p2876
(dp2877
S'environment'
p2878
S"{'A': <class 'gluon.html.A'>, 'Auth': <class 'gluon.tools.Auth'>, 'B': <class 'gluon.html.B'>, 'BEAUTIFY': <class 'gluon.html.BEAUTIFY'>, 'BODY': <class 'gluon.html.BODY'>, 'BR': <class 'gluon.html.BR'>, 'BUTTON': <class 'gluon.html.BUTTON'>, 'CAT': <class 'gluon.html.CAT'>, 'CENTER': <class 'gluon.html.CENTER'>, 'CLEANUP': <class 'gluon.validators.CLEANUP'>, ...}"
p2879
sS'ccode'
p2880
S'<code object <module> at 0xa1d5c38, file "/home/...py/applications/makebrand/models/db.py", line 12>'
p2881
ssS'lnum'
p2882
I204
sS'lines'
p2883
(dp2884
I199
S'    try:'
p2885
sI200
S'        if type(code) == types.CodeType:'
p2886
sI201
S'            ccode = code'
p2887
sI202
S'        else:'
p2888
sI203
S'            ccode = compile2(code,layer)'
p2889
sI204
S'        exec ccode in environment'
p2890
sI205
S'    except HTTP:'
p2891
sI206
S'        raise'
p2892
sI207
S'    except RestrictedError:'
p2893
sI208
S'        # do not encapsulate (obfuscate) the original RestrictedError'
p2894
ssS'call'
p2895
S'(code="# -*- coding: utf-8 -*-\\n\\n#######################...id),\\n\\t\\t\\t\\tField(\'file\', db.media),\\n\\t\\t\\t\\tsignature)\\n", environment={\'A\': <class \'gluon.html.A\'>, \'Auth\': <class \'gluon.tools.Auth\'>, \'B\': <class \'gluon.html.B\'>, \'BEAUTIFY\': <class \'gluon.html.BEAUTIFY\'>, \'BODY\': <class \'gluon.html.BODY\'>, \'BR\': <class \'gluon.html.BR\'>, \'BUTTON\': <class \'gluon.html.BUTTON\'>, \'CAT\': <class \'gluon.html.CAT\'>, \'CENTER\': <class \'gluon.html.CENTER\'>, \'CLEANUP\': <class \'gluon.validators.CLEANUP\'>, ...}, layer=\'/home/kaique/Projects/WebApps/web2py/applications/makebrand/models/db.py\')'
p2896
sS'func'
p2897
S'restricted'
p2898
sa(dp2899
g2874
S'/home/kaique/Projects/WebApps/web2py/applications/makebrand/models/db.py'
p2900
sg2876
(dp2901
S'db.client'
p2902
S"<Table {'_db': <DAL {'auth_event': <Table {'orig...>, '_id': <gluon.dal.Field object at 0xa37c04c>}>"
p2903
sS'SQLFORM.widgets.options'
p2904
S"<class 'gluon.sqlhtml.OptionsWidget'>"
p2905
sS'widget'
p2906
S'undefined'
p2907
sS'db.client.id'
p2908
S'<gluon.dal.Field object>'
p2909
sS'db'
p2910
S"<DAL {'auth_event': <Table {'origin': <gluon.dal... '_id': <gluon.dal.Field object at 0xa1caa2c>}>}>"
p2911
sS'Field'
p2912
S"<class 'gluon.dal.Field'>"
p2913
sS'SQLFORM'
p2914
S"<class 'gluon.sqlhtml.SQLFORM'>"
p2915
sS'db.client.name'
p2916
S'<gluon.dal.Field object>'
p2917
sS'SQLFORM.widgets'
p2918
S"<Storage {'multiple': <class 'gluon.sqlhtml.Mult...ss 'gluon.sqlhtml.OptionsWidget'>, 'blob': None}>"
p2919
sS'SQLFORM.widgets.options.widget'
p2920
S"<bound method type.widget of <class 'gluon.sqlhtml.OptionsWidget'>>"
p2921
ssg2882
I113
sg2883
(dp2922
I108
S'# Briefing project table'
p2923
sI109
S"db.define_table('project',"
p2924
sI110
S"\t\t\t\tField('name', 'string'),"
p2925
sI111
S"\t\t\t\tField('description', 'text'),"
p2926
sI112
S"\t\t\t\tField('terminated', 'boolean'),"
p2927
sI113
S"\t\t\t\tField('client_id', db.client, widget=SQLFORM.widgets.options.widget(db.client.name, db.client.id)),"
p2928
sI114
S"\t\t\t\tField('user_id', db.auth_user, default= auth.user_id),"
p2929
sI115
S'\t\t\t\tsignature)'
p2930
sI116
S''
sI117
S'# Briefing sub project table'
p2931
ssg2895
S'()'
p2932
sg2897
S'<module>'
p2933
sa(dp2934
g2874
S'/home/kaique/Projects/WebApps/web2py/gluon/sqlhtml.py'
p2935
sg2876
(dp2936
S'field'
p2937
S'<gluon.dal.Field object>'
p2938
sS'builtinSyntaxError'
p2939
S"<type 'exceptions.SyntaxError'>"
p2940
ssg2882
I217
sg2883
(dp2941
I212
S'            requires = [requires]'
p2942
sI213
S'        if requires:'
p2943
sI214
S"            if hasattr(requires[0], 'options'):"
p2944
sI215
S'                options = requires[0].options()'
p2945
sI216
S'            else:'
p2946
sI217
S"                raise SyntaxError, 'widget cannot determine options of %s' % field"
p2947
sI218
S'        opts = [OPTION(v, _value=k) for (k, v) in options]'
p2948
sI219
S''
sI220
S'        return SELECT(*opts, **attr)'
p2949
sI221
S''
ssg2895
S"(cls=<class 'gluon.sqlhtml.OptionsWidget'>, field=<gluon.dal.Field object>, value=<gluon.dal.Field object>, **attributes={})"
p2950
sg2897
S'widget'
p2951
sasS'pyver'
p2952
S'Python 2.7.2+: /usr/bin/python'
p2953
sS'session'
p2954
g69
(g70
g71
NtRp2955
(dp2956
g74
(dp2957
sg76
(lp2958
g69
(g78
g71
NtRp2959
(dp2960
g74
(dp2961
g82
I5
ssg83
Nsg76
(lp2962
g69
(g85
g71
NtRp2963
(dp2964
g74
(dp2965
sg83
g2959
sg76
(lp2966
g69
(g90
g71
NtRp2967
(dp2968
g74
(dp2969
g94
g95
ssg83
g2963
sg76
(lp2970
S'auth'
p2971
asbag69
(g90
g71
NtRp2972
(dp2973
g74
(dp2974
g101
g102
ssg83
g2963
sg76
(lp2975
S':'
asbag69
(g90
g71
NtRp2976
(dp2977
g74
(dp2978
sg83
g2963
sg76
(lp2979
g69
(g70
g71
NtRp2980
(dp2981
g74
(dp2982
g82
I5
ssg83
g2976
sg76
(lp2983
g69
(g78
g71
NtRp2984
(dp2985
g74
(dp2986
g82
I4
ssg83
Nsg76
(lp2987
g69
(g85
g71
NtRp2988
(dp2989
g74
(dp2990
sg83
g2984
sg76
(lp2991
g69
(g90
g71
NtRp2992
(dp2993
g74
(dp2994
g94
g95
ssg83
g2988
sg76
(lp2995
S'expiration'
p2996
asbag69
(g90
g71
NtRp2997
(dp2998
g74
(dp2999
g101
g102
ssg83
g2988
sg76
(lp3000
S':'
asbag69
(g90
g71
NtRp3001
(dp3002
g74
(dp3003
sg83
g2988
sg76
(lp3004
g69
(g70
g71
NtRp3005
(dp3006
g74
(dp3007
g82
I4
ssg83
g3001
sg76
(lp3008
S'2592000'
p3009
asbasbasbag69
(g85
g71
NtRp3010
(dp3011
g74
(dp3012
sg83
g2984
sg76
(lp3013
g69
(g90
g71
NtRp3014
(dp3015
g74
(dp3016
g94
g95
ssg83
g3010
sg76
(lp3017
S'hmac_key'
p3018
asbag69
(g90
g71
NtRp3019
(dp3020
g74
(dp3021
g101
g102
ssg83
g3010
sg76
(lp3022
S':'
asbag69
(g90
g71
NtRp3023
(dp3024
g74
(dp3025
sg83
g3010
sg76
(lp3026
g69
(g70
g71
NtRp3027
(dp3028
g74
(dp3029
g82
I4
ssg83
g3023
sg76
(lp3030
S'46d838c3-3442-4911-bf4f-3704755bd5c6'
p3031
asbasbasbag69
(g85
g71
NtRp3032
(dp3033
g74
(dp3034
sg83
g2984
sg76
(lp3035
g69
(g90
g71
NtRp3036
(dp3037
g74
(dp3038
g94
g95
ssg83
g3032
sg76
(lp3039
S'last_visit'
p3040
asbag69
(g90
g71
NtRp3041
(dp3042
g74
(dp3043
g101
g102
ssg83
g3032
sg76
(lp3044
S':'
asbag69
(g90
g71
NtRp3045
(dp3046
g74
(dp3047
sg83
g3032
sg76
(lp3048
g69
(g70
g71
NtRp3049
(dp3050
g74
(dp3051
g82
I4
ssg83
g3045
sg76
(lp3052
S'datetime.datetime(2012, 2, 1, 16, 46, 8, 441398)'
p3053
asbasbasbag69
(g85
g71
NtRp3054
(dp3055
g74
(dp3056
sg83
g2984
sg76
(lp3057
g69
(g90
g71
NtRp3058
(dp3059
g74
(dp3060
g94
g95
ssg83
g3054
sg76
(lp3061
S'remember'
p3062
asbag69
(g90
g71
NtRp3063
(dp3064
g74
(dp3065
g101
g102
ssg83
g3054
sg76
(lp3066
S':'
asbag69
(g90
g71
NtRp3067
(dp3068
g74
(dp3069
sg83
g3054
sg76
(lp3070
g69
(g70
g71
NtRp3071
(dp3072
g74
(dp3073
g82
I4
ssg83
g3067
sg76
(lp3074
g112
asbasbasbag69
(g85
g71
NtRp3075
(dp3076
g74
(dp3077
sg83
g2984
sg76
(lp3078
g69
(g90
g71
NtRp3079
(dp3080
g74
(dp3081
g94
g95
ssg83
g3075
sg76
(lp3082
S'user'
p3083
asbag69
(g90
g71
NtRp3084
(dp3085
g74
(dp3086
g101
g102
ssg83
g3075
sg76
(lp3087
S':'
asbag69
(g90
g71
NtRp3088
(dp3089
g74
(dp3090
sg83
g3075
sg76
(lp3091
g69
(g70
g71
NtRp3092
(dp3093
g74
(dp3094
g82
I4
ssg83
g3088
sg76
(lp3095
g69
(g78
g71
NtRp3096
(dp3097
g74
(dp3098
g82
I3
ssg83
Nsg76
(lp3099
g69
(g85
g71
NtRp3100
(dp3101
g74
(dp3102
sg83
g3096
sg76
(lp3103
g69
(g90
g71
NtRp3104
(dp3105
g74
(dp3106
g94
g95
ssg83
g3100
sg76
(lp3107
S'email'
p3108
asbag69
(g90
g71
NtRp3109
(dp3110
g74
(dp3111
g101
g102
ssg83
g3100
sg76
(lp3112
S':'
asbag69
(g90
g71
NtRp3113
(dp3114
g74
(dp3115
sg83
g3100
sg76
(lp3116
g69
(g70
g71
NtRp3117
(dp3118
g74
(dp3119
g82
I3
ssg83
g3113
sg76
(lp3120
S'kaique.developer@gmail.com'
p3121
asbasbasbag69
(g85
g71
NtRp3122
(dp3123
g74
(dp3124
sg83
g3096
sg76
(lp3125
g69
(g90
g71
NtRp3126
(dp3127
g74
(dp3128
g94
g95
ssg83
g3122
sg76
(lp3129
S'first_name'
p3130
asbag69
(g90
g71
NtRp3131
(dp3132
g74
(dp3133
g101
g102
ssg83
g3122
sg76
(lp3134
S':'
asbag69
(g90
g71
NtRp3135
(dp3136
g74
(dp3137
sg83
g3122
sg76
(lp3138
g69
(g70
g71
NtRp3139
(dp3140
g74
(dp3141
g82
I3
ssg83
g3135
sg76
(lp3142
S'kaique'
p3143
asbasbasbag69
(g85
g71
NtRp3144
(dp3145
g74
(dp3146
sg83
g3096
sg76
(lp3147
g69
(g90
g71
NtRp3148
(dp3149
g74
(dp3150
g94
g95
ssg83
g3144
sg76
(lp3151
S'id'
p3152
asbag69
(g90
g71
NtRp3153
(dp3154
g74
(dp3155
g101
g102
ssg83
g3144
sg76
(lp3156
S':'
asbag69
(g90
g71
NtRp3157
(dp3158
g74
(dp3159
sg83
g3144
sg76
(lp3160
g69
(g70
g71
NtRp3161
(dp3162
g74
(dp3163
g82
I3
ssg83
g3157
sg76
(lp3164
S'1'
asbasbasbag69
(g85
g71
NtRp3165
(dp3166
g74
(dp3167
sg83
g3096
sg76
(lp3168
g69
(g90
g71
NtRp3169
(dp3170
g74
(dp3171
g94
g95
ssg83
g3165
sg76
(lp3172
S'last_name'
p3173
asbag69
(g90
g71
NtRp3174
(dp3175
g74
(dp3176
g101
g102
ssg83
g3165
sg76
(lp3177
S':'
asbag69
(g90
g71
NtRp3178
(dp3179
g74
(dp3180
sg83
g3165
sg76
(lp3181
g69
(g70
g71
NtRp3182
(dp3183
g74
(dp3184
g82
I3
ssg83
g3178
sg76
(lp3185
S'silva'
p3186
asbasbasbag69
(g85
g71
NtRp3187
(dp3188
g74
(dp3189
sg83
g3096
sg76
(lp3190
g69
(g90
g71
NtRp3191
(dp3192
g74
(dp3193
g94
g95
ssg83
g3187
sg76
(lp3194
S'password'
p3195
asbag69
(g90
g71
NtRp3196
(dp3197
g74
(dp3198
g101
g102
ssg83
g3187
sg76
(lp3199
S':'
asbag69
(g90
g71
NtRp3200
(dp3201
g74
(dp3202
sg83
g3187
sg76
(lp3203
g69
(g70
g71
NtRp3204
(dp3205
g74
(dp3206
g82
I3
ssg83
g3200
sg76
(lp3207
S'72c6a018d62d3fb47d95389e4a062cd2'
p3208
asbasbasbag69
(g85
g71
NtRp3209
(dp3210
g74
(dp3211
sg83
g3096
sg76
(lp3212
g69
(g90
g71
NtRp3213
(dp3214
g74
(dp3215
g94
g95
ssg83
g3209
sg76
(lp3216
S'registration_id'
p3217
asbag69
(g90
g71
NtRp3218
(dp3219
g74
(dp3220
g101
g102
ssg83
g3209
sg76
(lp3221
S':'
asbag69
(g90
g71
NtRp3222
(dp3223
g74
(dp3224
sg83
g3209
sg76
(lp3225
g69
(g70
g71
NtRp3226
(dp3227
g74
(dp3228
g82
I3
ssg83
g3222
sg76
(lp3229
S''
asbasbasbag69
(g85
g71
NtRp3230
(dp3231
g74
(dp3232
sg83
g3096
sg76
(lp3233
g69
(g90
g71
NtRp3234
(dp3235
g74
(dp3236
g94
g95
ssg83
g3230
sg76
(lp3237
S'registration_key'
p3238
asbag69
(g90
g71
NtRp3239
(dp3240
g74
(dp3241
g101
g102
ssg83
g3230
sg76
(lp3242
S':'
asbag69
(g90
g71
NtRp3243
(dp3244
g74
(dp3245
sg83
g3230
sg76
(lp3246
g69
(g70
g71
NtRp3247
(dp3248
g74
(dp3249
g82
I3
ssg83
g3243
sg76
(lp3250
S''
asbasbasbag69
(g85
g71
NtRp3251
(dp3252
g74
(dp3253
sg83
g3096
sg76
(lp3254
g69
(g90
g71
NtRp3255
(dp3256
g74
(dp3257
g94
g95
ssg83
g3251
sg76
(lp3258
S'reset_password_key'
p3259
asbag69
(g90
g71
NtRp3260
(dp3261
g74
(dp3262
g101
g102
ssg83
g3251
sg76
(lp3263
S':'
asbag69
(g90
g71
NtRp3264
(dp3265
g74
(dp3266
sg83
g3251
sg76
(lp3267
g69
(g70
g71
NtRp3268
(dp3269
g74
(dp3270
g82
I3
ssg83
g3264
sg76
(lp3271
S''
asbasbasbasbasbasbasbasbasbasbasbag69
(g85
g71
NtRp3272
(dp3273
g74
(dp3274
sg83
g2959
sg76
(lp3275
g69
(g90
g71
NtRp3276
(dp3277
g74
(dp3278
g94
g95
ssg83
g3272
sg76
(lp3279
S'last_query'
p3280
asbag69
(g90
g71
NtRp3281
(dp3282
g74
(dp3283
g101
g102
ssg83
g3272
sg76
(lp3284
S':'
asbag69
(g90
g71
NtRp3285
(dp3286
g74
(dp3287
sg83
g3272
sg76
(lp3288
g69
(g70
g71
NtRp3289
(dp3290
g74
(dp3291
g82
I5
ssg83
g3285
sg76
(lp3292
S'db.project.id>0'
p3293
asbasbasbasbasbsS'etype'
p3294
S"<type 'exceptions.SyntaxError'>"
p3295
sS'date'
p3296
S'Wed Feb  1 17:27:03 2012'
p3297
sS'response'
p3298
g69
(g70
g71
NtRp3299
(dp3300
g74
(dp3301
sg76
(lp3302
g69
(g78
g71
NtRp3303
(dp3304
g74
(dp3305
g82
I5
ssg83
Nsg76
(lp3306
g69
(g85
g71
NtRp3307
(dp3308
g74
(dp3309
sg83
g3303
sg76
(lp3310
g69
(g90
g71
NtRp3311
(dp3312
g74
(dp3313
g94
g95
ssg83
g3307
sg76
(lp3314
g167
asbag69
(g90
g71
NtRp3315
(dp3316
g74
(dp3317
g101
g102
ssg83
g3307
sg76
(lp3318
S':'
asbag69
(g90
g71
NtRp3319
(dp3320
g74
(dp3321
sg83
g3307
sg76
(lp3322
g69
(g70
g71
NtRp3323
(dp3324
g74
(dp3325
g82
I5
ssg83
g3319
sg76
(lp3326
S'<cStringIO.StringO object at 0x9ff4080>'
p3327
asbasbasbag69
(g85
g71
NtRp3328
(dp3329
g74
(dp3330
sg83
g3303
sg76
(lp3331
g69
(g90
g71
NtRp3332
(dp3333
g74
(dp3334
g94
g95
ssg83
g3328
sg76
(lp3335
g233
asbag69
(g90
g71
NtRp3336
(dp3337
g74
(dp3338
g101
g102
ssg83
g3328
sg76
(lp3339
S':'
asbag69
(g90
g71
NtRp3340
(dp3341
g74
(dp3342
sg83
g3328
sg76
(lp3343
g69
(g70
g71
NtRp3344
(dp3345
g74
(dp3346
g82
I5
ssg83
g3340
sg76
(lp3347
g69
(g78
g71
NtRp3348
(dp3349
g74
(dp3350
g82
I4
ssg83
Nsg76
(lp3351
g69
(g85
g71
NtRp3352
(dp3353
g74
(dp3354
sg83
g3348
sg76
(lp3355
g69
(g90
g71
NtRp3356
(dp3357
g74
(dp3358
g94
g95
ssg83
g3352
sg76
(lp3359
S'session_id_makebrand'
p3360
asbag69
(g90
g71
NtRp3361
(dp3362
g74
(dp3363
g101
g102
ssg83
g3352
sg76
(lp3364
S':'
asbag69
(g90
g71
NtRp3365
(dp3366
g74
(dp3367
sg83
g3352
sg76
(lp3368
g69
(g70
g71
NtRp3369
(dp3370
g74
(dp3371
g82
I4
ssg83
g3365
sg76
(lp3372
g69
(g78
g71
NtRp3373
(dp3374
g74
(dp3375
g82
I3
ssg83
Nsg76
(lp3376
g69
(g85
g71
NtRp3377
(dp3378
g74
(dp3379
sg83
g3373
sg76
(lp3380
g69
(g90
g71
NtRp3381
(dp3382
g74
(dp3383
g94
g95
ssg83
g3377
sg76
(lp3384
g283
asbag69
(g90
g71
NtRp3385
(dp3386
g74
(dp3387
g101
g102
ssg83
g3377
sg76
(lp3388
S':'
asbag69
(g90
g71
NtRp3389
(dp3390
g74
(dp3391
sg83
g3377
sg76
(lp3392
g69
(g70
g71
NtRp3393
(dp3394
g74
(dp3395
g82
I3
ssg83
g3389
sg76
(lp3396
S''
asbasbasbag69
(g85
g71
NtRp3397
(dp3398
g74
(dp3399
sg83
g3373
sg76
(lp3400
g69
(g90
g71
NtRp3401
(dp3402
g74
(dp3403
g94
g95
ssg83
g3397
sg76
(lp3404
g304
asbag69
(g90
g71
NtRp3405
(dp3406
g74
(dp3407
g101
g102
ssg83
g3397
sg76
(lp3408
S':'
asbag69
(g90
g71
NtRp3409
(dp3410
g74
(dp3411
sg83
g3397
sg76
(lp3412
g69
(g70
g71
NtRp3413
(dp3414
g74
(dp3415
g82
I3
ssg83
g3409
sg76
(lp3416
S''
asbasbasbag69
(g85
g71
NtRp3417
(dp3418
g74
(dp3419
sg83
g3373
sg76
(lp3420
g69
(g90
g71
NtRp3421
(dp3422
g74
(dp3423
g94
g95
ssg83
g3417
sg76
(lp3424
g325
asbag69
(g90
g71
NtRp3425
(dp3426
g74
(dp3427
g101
g102
ssg83
g3417
sg76
(lp3428
S':'
asbag69
(g90
g71
NtRp3429
(dp3430
g74
(dp3431
sg83
g3417
sg76
(lp3432
g69
(g70
g71
NtRp3433
(dp3434
g74
(dp3435
g82
I3
ssg83
g3429
sg76
(lp3436
S''
asbasbasbag69
(g85
g71
NtRp3437
(dp3438
g74
(dp3439
sg83
g3373
sg76
(lp3440
g69
(g90
g71
NtRp3441
(dp3442
g74
(dp3443
g94
g95
ssg83
g3437
sg76
(lp3444
g346
asbag69
(g90
g71
NtRp3445
(dp3446
g74
(dp3447
g101
g102
ssg83
g3437
sg76
(lp3448
S':'
asbag69
(g90
g71
NtRp3449
(dp3450
g74
(dp3451
sg83
g3437
sg76
(lp3452
g69
(g70
g71
NtRp3453
(dp3454
g74
(dp3455
g82
I3
ssg83
g3449
sg76
(lp3456
S''
asbasbasbag69
(g85
g71
NtRp3457
(dp3458
g74
(dp3459
sg83
g3373
sg76
(lp3460
g69
(g90
g71
NtRp3461
(dp3462
g74
(dp3463
g94
g95
ssg83
g3457
sg76
(lp3464
g367
asbag69
(g90
g71
NtRp3465
(dp3466
g74
(dp3467
g101
g102
ssg83
g3457
sg76
(lp3468
S':'
asbag69
(g90
g71
NtRp3469
(dp3470
g74
(dp3471
sg83
g3457
sg76
(lp3472
g69
(g70
g71
NtRp3473
(dp3474
g74
(dp3475
g82
I3
ssg83
g3469
sg76
(lp3476
S''
asbasbasbag69
(g85
g71
NtRp3477
(dp3478
g74
(dp3479
sg83
g3373
sg76
(lp3480
g69
(g90
g71
NtRp3481
(dp3482
g74
(dp3483
g94
g95
ssg83
g3477
sg76
(lp3484
g388
asbag69
(g90
g71
NtRp3485
(dp3486
g74
(dp3487
g101
g102
ssg83
g3477
sg76
(lp3488
S':'
asbag69
(g90
g71
NtRp3489
(dp3490
g74
(dp3491
sg83
g3477
sg76
(lp3492
g69
(g70
g71
NtRp3493
(dp3494
g74
(dp3495
g82
I3
ssg83
g3489
sg76
(lp3496
S'/'
asbasbasbag69
(g85
g71
NtRp3497
(dp3498
g74
(dp3499
sg83
g3373
sg76
(lp3500
g69
(g90
g71
NtRp3501
(dp3502
g74
(dp3503
g94
g95
ssg83
g3497
sg76
(lp3504
g409
asbag69
(g90
g71
NtRp3505
(dp3506
g74
(dp3507
g101
g102
ssg83
g3497
sg76
(lp3508
S':'
asbag69
(g90
g71
NtRp3509
(dp3510
g74
(dp3511
sg83
g3497
sg76
(lp3512
g69
(g70
g71
NtRp3513
(dp3514
g74
(dp3515
g82
I3
ssg83
g3509
sg76
(lp3516
S''
asbasbasbag69
(g85
g71
NtRp3517
(dp3518
g74
(dp3519
sg83
g3373
sg76
(lp3520
g69
(g90
g71
NtRp3521
(dp3522
g74
(dp3523
g94
g95
ssg83
g3517
sg76
(lp3524
g430
asbag69
(g90
g71
NtRp3525
(dp3526
g74
(dp3527
g101
g102
ssg83
g3517
sg76
(lp3528
S':'
asbag69
(g90
g71
NtRp3529
(dp3530
g74
(dp3531
sg83
g3517
sg76
(lp3532
g69
(g70
g71
NtRp3533
(dp3534
g74
(dp3535
g82
I3
ssg83
g3529
sg76
(lp3536
S''
asbasbasbasbasbasbasbasbasbasbasbag69
(g85
g71
NtRp3537
(dp3538
g74
(dp3539
sg83
g3303
sg76
(lp3540
g69
(g90
g71
NtRp3541
(dp3542
g74
(dp3543
g94
g95
ssg83
g3537
sg76
(lp3544
S'files'
p3545
asbag69
(g90
g71
NtRp3546
(dp3547
g74
(dp3548
g101
g102
ssg83
g3537
sg76
(lp3549
S':'
asbag69
(g90
g71
NtRp3550
(dp3551
g74
(dp3552
sg83
g3537
sg76
(lp3553
g69
(g70
g71
NtRp3554
(dp3555
g74
(dp3556
g82
I5
ssg83
g3550
sg76
(lp3557
g69
(g78
g71
NtRp3558
(dp3559
g74
(dp3560
g82
I4
ssg83
Nsg76
(lp3561
sbasbasbasbag69
(g85
g71
NtRp3562
(dp3563
g74
(dp3564
sg83
g3303
sg76
(lp3565
g69
(g90
g71
NtRp3566
(dp3567
g74
(dp3568
g94
g95
ssg83
g3562
sg76
(lp3569
S'flash'
p3570
asbag69
(g90
g71
NtRp3571
(dp3572
g74
(dp3573
g101
g102
ssg83
g3562
sg76
(lp3574
S':'
asbag69
(g90
g71
NtRp3575
(dp3576
g74
(dp3577
sg83
g3562
sg76
(lp3578
g69
(g70
g71
NtRp3579
(dp3580
g74
(dp3581
g82
I5
ssg83
g3575
sg76
(lp3582
S''
asbasbasbag69
(g85
g71
NtRp3583
(dp3584
g74
(dp3585
sg83
g3303
sg76
(lp3586
g69
(g90
g71
NtRp3587
(dp3588
g74
(dp3589
g94
g95
ssg83
g3583
sg76
(lp3590
S'generic_patterns'
p3591
asbag69
(g90
g71
NtRp3592
(dp3593
g74
(dp3594
g101
g102
ssg83
g3583
sg76
(lp3595
S':'
asbag69
(g90
g71
NtRp3596
(dp3597
g74
(dp3598
sg83
g3583
sg76
(lp3599
g69
(g70
g71
NtRp3600
(dp3601
g74
(dp3602
g82
I5
ssg83
g3596
sg76
(lp3603
g69
(g78
g71
NtRp3604
(dp3605
g74
(dp3606
g82
I4
ssg83
Nsg76
(lp3607
g69
(g85
g71
NtRp3608
(dp3609
g74
(dp3610
sg83
g3604
sg76
(lp3611
g69
(g90
g71
NtRp3612
(dp3613
g74
(dp3614
sg83
g3608
sg76
(lp3615
g69
(g70
g71
NtRp3616
(dp3617
g74
(dp3618
g82
I4
ssg83
g3612
sg76
(lp3619
S'*'
asbasbasbasbasbasbasbag69
(g85
g71
NtRp3620
(dp3621
g74
(dp3622
sg83
g3303
sg76
(lp3623
g69
(g90
g71
NtRp3624
(dp3625
g74
(dp3626
g94
g95
ssg83
g3620
sg76
(lp3627
S'headers'
p3628
asbag69
(g90
g71
NtRp3629
(dp3630
g74
(dp3631
g101
g102
ssg83
g3620
sg76
(lp3632
S':'
asbag69
(g90
g71
NtRp3633
(dp3634
g74
(dp3635
sg83
g3620
sg76
(lp3636
g69
(g70
g71
NtRp3637
(dp3638
g74
(dp3639
g82
I5
ssg83
g3633
sg76
(lp3640
g69
(g78
g71
NtRp3641
(dp3642
g74
(dp3643
g82
I4
ssg83
Nsg76
(lp3644
g69
(g85
g71
NtRp3645
(dp3646
g74
(dp3647
sg83
g3641
sg76
(lp3648
g69
(g90
g71
NtRp3649
(dp3650
g74
(dp3651
g94
g95
ssg83
g3645
sg76
(lp3652
S'Cache-Control'
p3653
asbag69
(g90
g71
NtRp3654
(dp3655
g74
(dp3656
g101
g102
ssg83
g3645
sg76
(lp3657
S':'
asbag69
(g90
g71
NtRp3658
(dp3659
g74
(dp3660
sg83
g3645
sg76
(lp3661
g69
(g70
g71
NtRp3662
(dp3663
g74
(dp3664
g82
I4
ssg83
g3658
sg76
(lp3665
S'no-store, no-cache, must-revalidate, post-check=0, pre-check=0'
p3666
asbasbasbag69
(g85
g71
NtRp3667
(dp3668
g74
(dp3669
sg83
g3641
sg76
(lp3670
g69
(g90
g71
NtRp3671
(dp3672
g74
(dp3673
g94
g95
ssg83
g3667
sg76
(lp3674
S'Content-Type'
p3675
asbag69
(g90
g71
NtRp3676
(dp3677
g74
(dp3678
g101
g102
ssg83
g3667
sg76
(lp3679
S':'
asbag69
(g90
g71
NtRp3680
(dp3681
g74
(dp3682
sg83
g3667
sg76
(lp3683
g69
(g70
g71
NtRp3684
(dp3685
g74
(dp3686
g82
I4
ssg83
g3680
sg76
(lp3687
S'text/html; charset=utf-8'
p3688
asbasbasbag69
(g85
g71
NtRp3689
(dp3690
g74
(dp3691
sg83
g3641
sg76
(lp3692
g69
(g90
g71
NtRp3693
(dp3694
g74
(dp3695
g94
g95
ssg83
g3689
sg76
(lp3696
S'Expires'
p3697
asbag69
(g90
g71
NtRp3698
(dp3699
g74
(dp3700
g101
g102
ssg83
g3689
sg76
(lp3701
S':'
asbag69
(g90
g71
NtRp3702
(dp3703
g74
(dp3704
sg83
g3689
sg76
(lp3705
g69
(g70
g71
NtRp3706
(dp3707
g74
(dp3708
g82
I4
ssg83
g3702
sg76
(lp3709
S'Wed, 01 Feb 2012 19:27:03 GMT'
p3710
asbasbasbag69
(g85
g71
NtRp3711
(dp3712
g74
(dp3713
sg83
g3641
sg76
(lp3714
g69
(g90
g71
NtRp3715
(dp3716
g74
(dp3717
g94
g95
ssg83
g3711
sg76
(lp3718
S'Pragma'
p3719
asbag69
(g90
g71
NtRp3720
(dp3721
g74
(dp3722
g101
g102
ssg83
g3711
sg76
(lp3723
S':'
asbag69
(g90
g71
NtRp3724
(dp3725
g74
(dp3726
sg83
g3711
sg76
(lp3727
g69
(g70
g71
NtRp3728
(dp3729
g74
(dp3730
g82
I4
ssg83
g3724
sg76
(lp3731
S'no-cache'
p3732
asbasbasbag69
(g85
g71
NtRp3733
(dp3734
g74
(dp3735
sg83
g3641
sg76
(lp3736
g69
(g90
g71
NtRp3737
(dp3738
g74
(dp3739
g94
g95
ssg83
g3733
sg76
(lp3740
S'X-Powered-By'
p3741
asbag69
(g90
g71
NtRp3742
(dp3743
g74
(dp3744
g101
g102
ssg83
g3733
sg76
(lp3745
S':'
asbag69
(g90
g71
NtRp3746
(dp3747
g74
(dp3748
sg83
g3733
sg76
(lp3749
g69
(g70
g71
NtRp3750
(dp3751
g74
(dp3752
g82
I4
ssg83
g3746
sg76
(lp3753
S'web2py'
p3754
asbasbasbasbasbasbasbag69
(g85
g71
NtRp3755
(dp3756
g74
(dp3757
sg83
g3303
sg76
(lp3758
g69
(g90
g71
NtRp3759
(dp3760
g74
(dp3761
g94
g95
ssg83
g3755
sg76
(lp3762
S'menu'
p3763
asbag69
(g90
g71
NtRp3764
(dp3765
g74
(dp3766
g101
g102
ssg83
g3755
sg76
(lp3767
S':'
asbag69
(g90
g71
NtRp3768
(dp3769
g74
(dp3770
sg83
g3755
sg76
(lp3771
g69
(g70
g71
NtRp3772
(dp3773
g74
(dp3774
g82
I5
ssg83
g3768
sg76
(lp3775
g69
(g78
g71
NtRp3776
(dp3777
g74
(dp3778
g82
I4
ssg83
Nsg76
(lp3779
sbasbasbasbag69
(g85
g71
NtRp3780
(dp3781
g74
(dp3782
sg83
g3303
sg76
(lp3783
g69
(g90
g71
NtRp3784
(dp3785
g74
(dp3786
g94
g95
ssg83
g3780
sg76
(lp3787
S'meta'
p3788
asbag69
(g90
g71
NtRp3789
(dp3790
g74
(dp3791
g101
g102
ssg83
g3780
sg76
(lp3792
S':'
asbag69
(g90
g71
NtRp3793
(dp3794
g74
(dp3795
sg83
g3780
sg76
(lp3796
g69
(g70
g71
NtRp3797
(dp3798
g74
(dp3799
g82
I5
ssg83
g3793
sg76
(lp3800
g69
(g78
g71
NtRp3801
(dp3802
g74
(dp3803
g82
I4
ssg83
Nsg76
(lp3804
sbasbasbasbag69
(g85
g71
NtRp3805
(dp3806
g74
(dp3807
sg83
g3303
sg76
(lp3808
g69
(g90
g71
NtRp3809
(dp3810
g74
(dp3811
g94
g95
ssg83
g3805
sg76
(lp3812
S'postprocessing'
p3813
asbag69
(g90
g71
NtRp3814
(dp3815
g74
(dp3816
g101
g102
ssg83
g3805
sg76
(lp3817
S':'
asbag69
(g90
g71
NtRp3818
(dp3819
g74
(dp3820
sg83
g3805
sg76
(lp3821
g69
(g70
g71
NtRp3822
(dp3823
g74
(dp3824
g82
I5
ssg83
g3818
sg76
(lp3825
g69
(g78
g71
NtRp3826
(dp3827
g74
(dp3828
g82
I4
ssg83
Nsg76
(lp3829
sbasbasbasbag69
(g85
g71
NtRp3830
(dp3831
g74
(dp3832
sg83
g3303
sg76
(lp3833
g69
(g90
g71
NtRp3834
(dp3835
g74
(dp3836
g94
g95
ssg83
g3830
sg76
(lp3837
S'session_file'
p3838
asbag69
(g90
g71
NtRp3839
(dp3840
g74
(dp3841
g101
g102
ssg83
g3830
sg76
(lp3842
S':'
asbag69
(g90
g71
NtRp3843
(dp3844
g74
(dp3845
sg83
g3830
sg76
(lp3846
g69
(g70
g71
NtRp3847
(dp3848
g74
(dp3849
g82
I5
ssg83
g3843
sg76
(lp3850
S"<open file '/home/kaique/Projects/WebApps/web2py/applications/makebrand/sessions/127.0.0.1-e3ba017f-c4fb-45c9-8d16-b94cbdfde86f', mode 'rb+' at 0xa1dbe38>"
p3851
asbasbasbag69
(g85
g71
NtRp3852
(dp3853
g74
(dp3854
sg83
g3303
sg76
(lp3855
g69
(g90
g71
NtRp3856
(dp3857
g74
(dp3858
g94
g95
ssg83
g3852
sg76
(lp3859
S'session_filename'
p3860
asbag69
(g90
g71
NtRp3861
(dp3862
g74
(dp3863
g101
g102
ssg83
g3852
sg76
(lp3864
S':'
asbag69
(g90
g71
NtRp3865
(dp3866
g74
(dp3867
sg83
g3852
sg76
(lp3868
g69
(g70
g71
NtRp3869
(dp3870
g74
(dp3871
g82
I5
ssg83
g3865
sg76
(lp3872
S'/home/kaique/Projects/WebApps/web2py/applications/makebrand/sessions/127.0.0.1-e3ba017f-c4fb-45c9-8d16-b94cbdfde86f'
p3873
asbasbasbag69
(g85
g71
NtRp3874
(dp3875
g74
(dp3876
sg83
g3303
sg76
(lp3877
g69
(g90
g71
NtRp3878
(dp3879
g74
(dp3880
g94
g95
ssg83
g3874
sg76
(lp3881
S'session_id'
p3882
asbag69
(g90
g71
NtRp3883
(dp3884
g74
(dp3885
g101
g102
ssg83
g3874
sg76
(lp3886
S':'
asbag69
(g90
g71
NtRp3887
(dp3888
g74
(dp3889
sg83
g3874
sg76
(lp3890
g69
(g70
g71
NtRp3891
(dp3892
g74
(dp3893
g82
I5
ssg83
g3887
sg76
(lp3894
S'127.0.0.1-e3ba017f-c4fb-45c9-8d16-b94cbdfde86f'
p3895
asbasbasbag69
(g85
g71
NtRp3896
(dp3897
g74
(dp3898
sg83
g3303
sg76
(lp3899
g69
(g90
g71
NtRp3900
(dp3901
g74
(dp3902
g94
g95
ssg83
g3896
sg76
(lp3903
S'session_id_name'
p3904
asbag69
(g90
g71
NtRp3905
(dp3906
g74
(dp3907
g101
g102
ssg83
g3896
sg76
(lp3908
S':'
asbag69
(g90
g71
NtRp3909
(dp3910
g74
(dp3911
sg83
g3896
sg76
(lp3912
g69
(g70
g71
NtRp3913
(dp3914
g74
(dp3915
g82
I5
ssg83
g3909
sg76
(lp3916
g3360
asbasbasbag69
(g85
g71
NtRp3917
(dp3918
g74
(dp3919
sg83
g3303
sg76
(lp3920
g69
(g90
g71
NtRp3921
(dp3922
g74
(dp3923
g94
g95
ssg83
g3917
sg76
(lp3924
S'session_locked'
p3925
asbag69
(g90
g71
NtRp3926
(dp3927
g74
(dp3928
g101
g102
ssg83
g3917
sg76
(lp3929
S':'
asbag69
(g90
g71
NtRp3930
(dp3931
g74
(dp3932
sg83
g3917
sg76
(lp3933
g69
(g70
g71
NtRp3934
(dp3935
g74
(dp3936
g82
I5
ssg83
g3930
sg76
(lp3937
g1527
asbasbasbag69
(g85
g71
NtRp3938
(dp3939
g74
(dp3940
sg83
g3303
sg76
(lp3941
g69
(g90
g71
NtRp3942
(dp3943
g74
(dp3944
g94
g95
ssg83
g3938
sg76
(lp3945
S'session_new'
p3946
asbag69
(g90
g71
NtRp3947
(dp3948
g74
(dp3949
g101
g102
ssg83
g3938
sg76
(lp3950
S':'
asbag69
(g90
g71
NtRp3951
(dp3952
g74
(dp3953
sg83
g3938
sg76
(lp3954
g69
(g70
g71
NtRp3955
(dp3956
g74
(dp3957
g82
I5
ssg83
g3951
sg76
(lp3958
g112
asbasbasbag69
(g85
g71
NtRp3959
(dp3960
g74
(dp3961
sg83
g3303
sg76
(lp3962
g69
(g90
g71
NtRp3963
(dp3964
g74
(dp3965
g94
g95
ssg83
g3959
sg76
(lp3966
S'status'
p3967
asbag69
(g90
g71
NtRp3968
(dp3969
g74
(dp3970
g101
g102
ssg83
g3959
sg76
(lp3971
S':'
asbag69
(g90
g71
NtRp3972
(dp3973
g74
(dp3974
sg83
g3959
sg76
(lp3975
g69
(g70
g71
NtRp3976
(dp3977
g74
(dp3978
g82
I5
ssg83
g3972
sg76
(lp3979
S'200'
p3980
asbasbasbag69
(g85
g71
NtRp3981
(dp3982
g74
(dp3983
sg83
g3303
sg76
(lp3984
g69
(g90
g71
NtRp3985
(dp3986
g74
(dp3987
g94
g95
ssg83
g3981
sg76
(lp3988
g2191
asbag69
(g90
g71
NtRp3989
(dp3990
g74
(dp3991
g101
g102
ssg83
g3981
sg76
(lp3992
S':'
asbag69
(g90
g71
NtRp3993
(dp3994
g74
(dp3995
sg83
g3981
sg76
(lp3996
g69
(g70
g71
NtRp3997
(dp3998
g74
(dp3999
g82
I5
ssg83
g3993
sg76
(lp4000
g2204
asbasbasbag69
(g85
g71
NtRp4001
(dp4002
g74
(dp4003
sg83
g3303
sg76
(lp4004
g69
(g90
g71
NtRp4005
(dp4006
g74
(dp4007
g94
g95
ssg83
g4001
sg76
(lp4008
S'view'
p4009
asbag69
(g90
g71
NtRp4010
(dp4011
g74
(dp4012
g101
g102
ssg83
g4001
sg76
(lp4013
S':'
asbag69
(g90
g71
NtRp4014
(dp4015
g74
(dp4016
sg83
g4001
sg76
(lp4017
g69
(g70
g71
NtRp4018
(dp4019
g74
(dp4020
g82
I5
ssg83
g4014
sg76
(lp4021
S'project/new.html'
p4022
asbasbasbasbasbsS'locals'
p4023
(dp4024
S'attr'
p4025
S"{'_class': 'generic-widget', '_id': 'client_name', '_name': 'name', 'requires': [<gluon.validators.IS_NOT_EMPTY object>], 'value': <gluon.dal.Field object>}"
p4026
sS'default'
p4027
S"{'value': <gluon.dal.Field object>}"
p4028
sS'value'
p4029
S'<gluon.dal.Field object>'
p4030
sS'field'
p4031
S'<gluon.dal.Field object>'
p4032
sg74
g21
sS'requires'
p4033
S'[<gluon.validators.IS_NOT_EMPTY object>]'
p4034
sS'cls'
p4035
S"<class 'gluon.sqlhtml.OptionsWidget'>"
p4036
sssS'traceback'
p4037
S'Traceback (most recent call last):\n  File "/home/kaique/Projects/WebApps/web2py/gluon/restricted.py", line 204, in restricted\n    exec ccode in environment\n  File "/home/kaique/Projects/WebApps/web2py/applications/makebrand/models/db.py", line 113, in <module>\n    Field(\'client_id\', db.client, widget=SQLFORM.widgets.options.widget(db.client.name, db.client.id)),\n  File "/home/kaique/Projects/WebApps/web2py/gluon/sqlhtml.py", line 217, in widget\n    raise SyntaxError, \'widget cannot determine options of %s\' % field\nSyntaxError: widget cannot determine options of client.name\n'
p4038
s.